

Microchip Technology PIC LITE Macro Assembler V1.44 build -154322312 
                                                                                               Thu Dec 21 17:53:30 2017

Microchip Technology Omniscient Code Generator v1.44 (Free mode) build 201709140600
     1                           	processor	16F886
     2                           	opt	pw 120
     3                           	opt	lm
     4                           	psect	eeprom_data,global,class=EEDATA,space=3,delta=2
     5                           	psect	strings,global,class=STRING,delta=2
     6                           	psect	stringtext,global,reloc=256,class=STRCODE,delta=2
     7                           	psect	cinit,global,class=CODE,merge=1,delta=2
     8                           	psect	bssBANK0,global,class=BANK0,space=1,delta=1
     9                           	psect	clrtext,global,class=CODE,delta=2
    10                           	psect	cstackCOMMON,global,class=COMMON,space=1,delta=1
    11                           	psect	cstackBANK0,global,class=BANK0,space=1,delta=1
    12                           	psect	maintext,global,class=CODE,split=1,delta=2
    13                           	psect	text1,local,class=CODE,merge=1,delta=2
    14                           	psect	text2,local,class=CODE,merge=1,delta=2
    15                           	psect	text3,local,class=CODE,merge=1,delta=2
    16                           	psect	text4,local,class=CODE,merge=1,delta=2
    17                           	psect	text5,local,class=CODE,merge=1,delta=2
    18                           	psect	text6,local,class=CODE,merge=1,delta=2,group=2
    19                           	psect	text7,local,class=CODE,merge=1,delta=2
    20                           	psect	text8,local,class=CODE,merge=1,delta=2,group=1
    21                           	psect	text9,local,class=CODE,merge=1,delta=2,group=2
    22                           	psect	text10,local,class=CODE,merge=1,delta=2,group=2
    23                           	psect	text11,local,class=CODE,merge=1,delta=2
    24                           	psect	text12,local,class=CODE,merge=1,delta=2,group=1
    25                           	psect	text13,local,class=CODE,merge=1,delta=2,group=2
    26                           	psect	text14,local,class=CODE,merge=1,delta=2
    27                           	psect	text15,local,class=CODE,merge=1,delta=2
    28                           	psect	text16,local,class=CODE,merge=1,delta=2
    29                           	psect	text17,local,class=CODE,merge=1,delta=2
    30                           	psect	text18,local,class=CODE,merge=1,delta=2
    31                           	psect	text19,local,class=CODE,merge=1,delta=2
    32                           	psect	text20,local,class=CODE,merge=1,delta=2
    33                           	psect	maintext_split_1,global,class=CODE,split=1,delta=2
    34                           	psect	maintext_split_2,global,class=CODE,split=1,delta=2
    35                           	dabs	1,0x7E,2
    36  0000                     
    37                           ; Version 1.44
    38                           ; Generated 14/09/2017 GMT
    39                           ; 
    40                           ; Copyright © 2017, Microchip Technology Inc. and its subsidiaries ("Microchip")
    41                           ; All rights reserved.
    42                           ; 
    43                           ; This software is developed by Microchip Technology Inc. and its subsidiaries ("Microch
      +                          ip").
    44                           ; 
    45                           ; Redistribution and use in source and binary forms, with or without modification, are
    46                           ; permitted provided that the following conditions are met:
    47                           ; 
    48                           ;     1. Redistributions of source code must retain the above copyright notice, this lis
      +                          t of
    49                           ;        conditions and the following disclaimer.
    50                           ; 
    51                           ;     2. Redistributions in binary form must reproduce the above copyright notice, this 
      +                          list
    52                           ;        of conditions and the following disclaimer in the documentation and/or other
    53                           ;        materials provided with the distribution.
    54                           ; 
    55                           ;     3. Microchip's name may not be used to endorse or promote products derived from th
      +                          is
    56                           ;        software without specific prior written permission.
    57                           ; 
    58                           ; THIS SOFTWARE IS PROVIDED BY MICROCHIP "AS IS" AND ANY EXPRESS OR IMPLIED WARRANTIES,
    59                           ; INCLUDING, BUT NOT LIMITED TO, THE IMPLIED WARRANTIES OF MERCHANTABILITY AND FITNESS F
      +                          OR
    60                           ; PURPOSE ARE DISCLAIMED.  IN NO EVENT SHALL MICROCHIP BE LIABLE FOR ANY DIRECT, INDIREC
      +                          T,
    61                           ; INCIDENTAL, SPECIAL, EXEMPLARY, OR CONSEQUENTIAL DAMAGES (INCLUDING BUT NOT LIMITED TO
    62                           ; PROCUREMENT OF SUBSTITUTE GOODS OR SERVICES; LOSS OF USE, DATA OR PROFITS; OR BUSINESS
    63                           ; INTERRUPTION) HOWSOEVER CAUSED AND ON ANY THEORY OF LIABILITY, WHETHER IN CONTRACT, ST
      +                          RICT
    64                           ; LIABILITY, OR TORT (INCLUDING NEGLIGENCE OR OTHERWISE) ARISING IN ANY WAY OUT OF THE U
      +                          SE OF
    65                           ; THIS SOFTWARE, EVEN IF ADVISED OF THE POSSIBILITY OF SUCH DAMAGE.
    66                           ; 
    67                           ; 
    68                           ; Code-generator required, PIC16F886 Definitions
    69                           ; 
    70                           ; SFR Addresses
    71  0000                     	;# 
    72  0001                     	;# 
    73  0002                     	;# 
    74  0003                     	;# 
    75  0004                     	;# 
    76  0005                     	;# 
    77  0006                     	;# 
    78  0007                     	;# 
    79  0009                     	;# 
    80  000A                     	;# 
    81  000B                     	;# 
    82  000C                     	;# 
    83  000D                     	;# 
    84  000E                     	;# 
    85  000E                     	;# 
    86  000F                     	;# 
    87  0010                     	;# 
    88  0011                     	;# 
    89  0012                     	;# 
    90  0013                     	;# 
    91  0014                     	;# 
    92  0015                     	;# 
    93  0015                     	;# 
    94  0016                     	;# 
    95  0017                     	;# 
    96  0018                     	;# 
    97  0019                     	;# 
    98  001A                     	;# 
    99  001B                     	;# 
   100  001B                     	;# 
   101  001C                     	;# 
   102  001D                     	;# 
   103  001E                     	;# 
   104  001F                     	;# 
   105  0081                     	;# 
   106  0085                     	;# 
   107  0086                     	;# 
   108  0087                     	;# 
   109  0089                     	;# 
   110  008C                     	;# 
   111  008D                     	;# 
   112  008E                     	;# 
   113  008F                     	;# 
   114  0090                     	;# 
   115  0091                     	;# 
   116  0092                     	;# 
   117  0093                     	;# 
   118  0093                     	;# 
   119  0093                     	;# 
   120  0094                     	;# 
   121  0095                     	;# 
   122  0096                     	;# 
   123  0097                     	;# 
   124  0098                     	;# 
   125  0099                     	;# 
   126  009A                     	;# 
   127  009B                     	;# 
   128  009C                     	;# 
   129  009D                     	;# 
   130  009E                     	;# 
   131  009F                     	;# 
   132  0105                     	;# 
   133  0107                     	;# 
   134  0108                     	;# 
   135  0109                     	;# 
   136  010C                     	;# 
   137  010C                     	;# 
   138  010D                     	;# 
   139  010E                     	;# 
   140  010F                     	;# 
   141  0185                     	;# 
   142  0187                     	;# 
   143  0188                     	;# 
   144  0189                     	;# 
   145  018C                     	;# 
   146  018D                     	;# 
   147                           
   148                           	psect	eeprom_data
   149  0000  0000 0000 0009 0000 0000 0000 0000 0000 	db	0,0,9,0,0,0,0,0	;# 
   150  0001                     _TMR0	set	1
   151  005F                     _GIE	set	95
   152  0018                     _CARRY	set	24
   153  002B                     _RA3	set	43
   154  005A                     _T0IF	set	90
   155  003E                     _RC6	set	62
   156  0037                     _RB7	set	55
   157  0034                     _RB4	set	52
   158  0035                     _RB5	set	53
   159  0036                     _RB6	set	54
   160  0028                     _RA0	set	40
   161  002F                     _RA7	set	47
   162  003F                     _RC7	set	63
   163  002A                     _RA2	set	42
   164  0029                     _RA1	set	41
   165  0038                     _RC0	set	56
   166  003B                     _RC3	set	59
   167  003D                     _RC5	set	61
   168  003C                     _RC4	set	60
   169  0033                     _RB3	set	51
   170  0032                     _RB2	set	50
   171  0031                     _RB1	set	49
   172  0030                     _RB0	set	48
   173  0095                     _WPUB	set	149
   174  0081                     _OPTION_REG	set	129
   175  0087                     _TRISC	set	135
   176  0086                     _TRISB	set	134
   177  0085                     _TRISA	set	133
   178  043B                     _TRISC3	set	1083
   179  010C                     _EEDATA	set	268
   180  010D                     _EEADR	set	269
   181  018D                     _EECON2	set	397
   182  018C                     _EECON1	set	396
   183  0189                     _ANSELH	set	393
   184  0188                     _ANSEL	set	392
   185  0C62                     _WREN	set	3170
   186  0C60                     _RD	set	3168
   187  0C61                     _WR	set	3169
   188                           
   189                           	psect	strings
   190  0800                     __pstrings:	
   191  0800                     stringtab:	
   192  0800                     __stringtab:	
   193                           
   194                           ;	String table - string pointers are 2 bytes each
   195  0800  1BFF               	btfsc	btemp+1,7
   196  0801  280A               	ljmp	stringcode
   197  0802  1383               	bcf	3,7
   198  0803  187F               	btfsc	btemp+1,0
   199  0804  1783               	bsf	3,7
   200  0805  0800               	movf	0,w
   201  0806  0A84               	incf	4,f
   202  0807  1903               	skipnz
   203  0808  0AFF               	incf	btemp+1,f
   204  0809  0008               	return
   205  080A                     stringcode:	
   206  080A  087F               	movf	btemp+1,w
   207  080B  397F               	andlw	127
   208  080C  008A               	movwf	10
   209  080D  0804               	movf	4,w
   210  080E  0A84               	incf	4,f
   211  080F  1903               	skipnz
   212  0810  0AFF               	incf	btemp+1,f
   213  0811  0082               	movwf	2
   214  0812                     __stringbase:	
   215  0812                     __end_of__stringtab:	
   216                           
   217                           	psect	stringtext
   218  1000                     __pstringtext:	
   219  1000                     STR_22:	
   220  1000  3473               	retlw	115	;'s'
   221  1001  3465               	retlw	101	;'e'
   222  1002  346E               	retlw	110	;'n'
   223  1003  3473               	retlw	115	;'s'
   224  1004  346F               	retlw	111	;'o'
   225  1005  3472               	retlw	114	;'r'
   226  1006  3432               	retlw	50	;'2'
   227  1007  3420               	retlw	32	;' '
   228  1008  3466               	retlw	102	;'f'
   229  1009  3461               	retlw	97	;'a'
   230  100A  3475               	retlw	117	;'u'
   231  100B  346C               	retlw	108	;'l'
   232  100C  3474               	retlw	116	;'t'
   233  100D  3421               	retlw	33	;'!'
   234  100E  3421               	retlw	33	;'!'
   235  100F  3420               	retlw	32	;' '
   236  1010  3420               	retlw	32	;' '
   237  1011  3420               	retlw	32	;' '
   238  1012  3420               	retlw	32	;' '
   239  1013  3400               	retlw	0
   240  1014                     STR_23:	
   241  1014  3420               	retlw	32	;' '
   242  1015  3420               	retlw	32	;' '
   243  1016  3420               	retlw	32	;' '
   244  1017  3420               	retlw	32	;' '
   245  1018  3420               	retlw	32	;' '
   246  1019  3420               	retlw	32	;' '
   247  101A  3420               	retlw	32	;' '
   248  101B  3420               	retlw	32	;' '
   249  101C  3420               	retlw	32	;' '
   250  101D  3420               	retlw	32	;' '
   251  101E  3420               	retlw	32	;' '
   252  101F  3420               	retlw	32	;' '
   253  1020  3420               	retlw	32	;' '
   254  1021  3420               	retlw	32	;' '
   255  1022  3420               	retlw	32	;' '
   256  1023  3420               	retlw	32	;' '
   257  1024  3420               	retlw	32	;' '
   258  1025  3400               	retlw	0
   259  1026                     STR_3:	
   260  1026  3420               	retlw	32	;' '
   261  1027  342A               	retlw	42	;'*'
   262  1028  3420               	retlw	32	;' '
   263  1029  3442               	retlw	66	;'B'
   264  102A  3452               	retlw	82	;'R'
   265  102B  3445               	retlw	69	;'E'
   266  102C  3457               	retlw	87	;'W'
   267  102D  344D               	retlw	77	;'M'
   268  102E  3441               	retlw	65	;'A'
   269  102F  3453               	retlw	83	;'S'
   270  1030  3454               	retlw	84	;'T'
   271  1031  3445               	retlw	69	;'E'
   272  1032  3452               	retlw	82	;'R'
   273  1033  3420               	retlw	32	;' '
   274  1034  342A               	retlw	42	;'*'
   275  1035  3420               	retlw	32	;' '
   276  1036  3400               	retlw	0
   277  1037                     STR_5:	
   278  1037  3420               	retlw	32	;' '
   279  1038  3445               	retlw	69	;'E'
   280  1039  344E               	retlw	78	;'N'
   281  103A  3454               	retlw	84	;'T'
   282  103B  3445               	retlw	69	;'E'
   283  103C  3452               	retlw	82	;'R'
   284  103D  3420               	retlw	32	;' '
   285  103E  3450               	retlw	80	;'P'
   286  103F  3441               	retlw	65	;'A'
   287  1040  3453               	retlw	83	;'S'
   288  1041  3453               	retlw	83	;'S'
   289  1042  3457               	retlw	87	;'W'
   290  1043  344F               	retlw	79	;'O'
   291  1044  3452               	retlw	82	;'R'
   292  1045  3444               	retlw	68	;'D'
   293  1046  3420               	retlw	32	;' '
   294  1047  3400               	retlw	0
   295  1048                     STR_4:	
   296  1048  3420               	retlw	32	;' '
   297  1049  3445               	retlw	69	;'E'
   298  104A  3458               	retlw	88	;'X'
   299  104B  3454               	retlw	84	;'T'
   300  104C  3445               	retlw	69	;'E'
   301  104D  3452               	retlw	82	;'R'
   302  104E  344E               	retlw	78	;'N'
   303  104F  3441               	retlw	65	;'A'
   304  1050  344C               	retlw	76	;'L'
   305  1051  3420               	retlw	32	;' '
   306  1052  3442               	retlw	66	;'B'
   307  1053  344F               	retlw	79	;'O'
   308  1054  3449               	retlw	73	;'I'
   309  1055  344C               	retlw	76	;'L'
   310  1056  3445               	retlw	69	;'E'
   311  1057  3452               	retlw	82	;'R'
   312  1058  3400               	retlw	0
   313  1059                     STR_16:	
   314  1059  3448               	retlw	72	;'H'
   315  105A  3469               	retlw	105	;'i'
   316  105B  3467               	retlw	103	;'g'
   317  105C  3468               	retlw	104	;'h'
   318  105D  3420               	retlw	32	;' '
   319  105E  3454               	retlw	84	;'T'
   320  105F  3465               	retlw	101	;'e'
   321  1060  346D               	retlw	109	;'m'
   322  1061  3470               	retlw	112	;'p'
   323  1062  3465               	retlw	101	;'e'
   324  1063  3472               	retlw	114	;'r'
   325  1064  3461               	retlw	97	;'a'
   326  1065  3474               	retlw	116	;'t'
   327  1066  3475               	retlw	117	;'u'
   328  1067  3472               	retlw	114	;'r'
   329  1068  3465               	retlw	101	;'e'
   330  1069  3400               	retlw	0
   331  106A                     STR_24:	
   332  106A  3453               	retlw	83	;'S'
   333  106B  3445               	retlw	69	;'E'
   334  106C  344E               	retlw	78	;'N'
   335  106D  3453               	retlw	83	;'S'
   336  106E  344F               	retlw	79	;'O'
   337  106F  3452               	retlw	82	;'R'
   338  1070  3420               	retlw	32	;' '
   339  1071  3446               	retlw	70	;'F'
   340  1072  3441               	retlw	65	;'A'
   341  1073  3455               	retlw	85	;'U'
   342  1074  344C               	retlw	76	;'L'
   343  1075  3454               	retlw	84	;'T'
   344  1076  3421               	retlw	33	;'!'
   345  1077  3421               	retlw	33	;'!'
   346  1078  3421               	retlw	33	;'!'
   347  1079  3400               	retlw	0
   348  107A                     STR_29:	
   349  107A  3473               	retlw	115	;'s'
   350  107B  3465               	retlw	101	;'e'
   351  107C  346E               	retlw	110	;'n'
   352  107D  3473               	retlw	115	;'s'
   353  107E  346F               	retlw	111	;'o'
   354  107F  3472               	retlw	114	;'r'
   355  1080  3432               	retlw	50	;'2'
   356  1081  3420               	retlw	32	;' '
   357  1082  3466               	retlw	102	;'f'
   358  1083  3461               	retlw	97	;'a'
   359  1084  3475               	retlw	117	;'u'
   360  1085  346C               	retlw	108	;'l'
   361  1086  3474               	retlw	116	;'t'
   362  1087  3421               	retlw	33	;'!'
   363  1088  3421               	retlw	33	;'!'
   364  1089  3400               	retlw	0
   365  108A                     STR_13:	
   366  108A  3445               	retlw	69	;'E'
   367  108B  346E               	retlw	110	;'n'
   368  108C  3474               	retlw	116	;'t'
   369  108D  3465               	retlw	101	;'e'
   370  108E  3472               	retlw	114	;'r'
   371  108F  3420               	retlw	32	;' '
   372  1090  3468               	retlw	104	;'h'
   373  1091  3469               	retlw	105	;'i'
   374  1092  3467               	retlw	103	;'g'
   375  1093  3468               	retlw	104	;'h'
   376  1094  3420               	retlw	32	;' '
   377  1095  3474               	retlw	116	;'t'
   378  1096  3465               	retlw	101	;'e'
   379  1097  346D               	retlw	109	;'m'
   380  1098  3470               	retlw	112	;'p'
   381  1099  3400               	retlw	0
   382  109A                     STR_14:	
   383  109A  342A               	retlw	42	;'*'
   384  109B  3420               	retlw	32	;' '
   385  109C  3442               	retlw	66	;'B'
   386  109D  3452               	retlw	82	;'R'
   387  109E  3445               	retlw	69	;'E'
   388  109F  3457               	retlw	87	;'W'
   389  10A0  344D               	retlw	77	;'M'
   390  10A1  3441               	retlw	65	;'A'
   391  10A2  3453               	retlw	83	;'S'
   392  10A3  3454               	retlw	84	;'T'
   393  10A4  3445               	retlw	69	;'E'
   394  10A5  3452               	retlw	82	;'R'
   395  10A6  3420               	retlw	32	;' '
   396  10A7  342A               	retlw	42	;'*'
   397  10A8  3400               	retlw	0
   398  10A9                     STR_12:	
   399  10A9  3454               	retlw	84	;'T'
   400  10AA  3465               	retlw	101	;'e'
   401  10AB  346D               	retlw	109	;'m'
   402  10AC  3470               	retlw	112	;'p'
   403  10AD  3465               	retlw	101	;'e'
   404  10AE  3472               	retlw	114	;'r'
   405  10AF  3461               	retlw	97	;'a'
   406  10B0  3474               	retlw	116	;'t'
   407  10B1  3475               	retlw	117	;'u'
   408  10B2  3472               	retlw	114	;'r'
   409  10B3  3465               	retlw	101	;'e'
   410  10B4  342E               	retlw	46	;'.'
   411  10B5  342E               	retlw	46	;'.'
   412  10B6  342E               	retlw	46	;'.'
   413  10B7  3400               	retlw	0
   414  10B8                     STR_7:	
   415  10B8  3477               	retlw	119	;'w'
   416  10B9  3472               	retlw	114	;'r'
   417  10BA  346F               	retlw	111	;'o'
   418  10BB  346E               	retlw	110	;'n'
   419  10BC  3467               	retlw	103	;'g'
   420  10BD  3420               	retlw	32	;' '
   421  10BE  3470               	retlw	112	;'p'
   422  10BF  3461               	retlw	97	;'a'
   423  10C0  3473               	retlw	115	;'s'
   424  10C1  3473               	retlw	115	;'s'
   425  10C2  3477               	retlw	119	;'w'
   426  10C3  346F               	retlw	111	;'o'
   427  10C4  3472               	retlw	114	;'r'
   428  10C5  3464               	retlw	100	;'d'
   429  10C6  3400               	retlw	0
   430  10C7                     STR_28:	
   431  10C7  3443               	retlw	67	;'C'
   432  10C8  3468               	retlw	104	;'h'
   433  10C9  3465               	retlw	101	;'e'
   434  10CA  3463               	retlw	99	;'c'
   435  10CB  346B               	retlw	107	;'k'
   436  10CC  3469               	retlw	105	;'i'
   437  10CD  346E               	retlw	110	;'n'
   438  10CE  3467               	retlw	103	;'g'
   439  10CF  3420               	retlw	32	;' '
   440  10D0  3477               	retlw	119	;'w'
   441  10D1  3461               	retlw	97	;'a'
   442  10D2  3474               	retlw	116	;'t'
   443  10D3  3465               	retlw	101	;'e'
   444  10D4  3472               	retlw	114	;'r'
   445  10D5  3400               	retlw	0
   446  10D6                     STR_32:	
   447  10D6  3473               	retlw	115	;'s'
   448  10D7  3465               	retlw	101	;'e'
   449  10D8  346E               	retlw	110	;'n'
   450  10D9  3473               	retlw	115	;'s'
   451  10DA  346F               	retlw	111	;'o'
   452  10DB  3472               	retlw	114	;'r'
   453  10DC  3431               	retlw	49	;'1'
   454  10DD  3420               	retlw	32	;' '
   455  10DE  3466               	retlw	102	;'f'
   456  10DF  3461               	retlw	97	;'a'
   457  10E0  3475               	retlw	117	;'u'
   458  10E1  346C               	retlw	108	;'l'
   459  10E2  3474               	retlw	116	;'t'
   460  10E3  3400               	retlw	0
   461  10E4                     STR_33:	
   462  10E4  3473               	retlw	115	;'s'
   463  10E5  3465               	retlw	101	;'e'
   464  10E6  346E               	retlw	110	;'n'
   465  10E7  3473               	retlw	115	;'s'
   466  10E8  346F               	retlw	111	;'o'
   467  10E9  3472               	retlw	114	;'r'
   468  10EA  3432               	retlw	50	;'2'
   469  10EB  3420               	retlw	32	;' '
   470  10EC  3466               	retlw	102	;'f'
   471  10ED  3461               	retlw	97	;'a'
   472  10EE  3475               	retlw	117	;'u'
   473  10EF  346C               	retlw	108	;'l'
   474  10F0  3474               	retlw	116	;'t'
   475  10F1  3400               	retlw	0
   476  10F2                     STR_18:	
   477  10F2  3454               	retlw	84	;'T'
   478  10F3  3445               	retlw	69	;'E'
   479  10F4  344D               	retlw	77	;'M'
   480  10F5  3450               	retlw	80	;'P'
   481  10F6  3445               	retlw	69	;'E'
   482  10F7  3452               	retlw	82	;'R'
   483  10F8  3441               	retlw	65	;'A'
   484  10F9  3454               	retlw	84	;'T'
   485  10FA  3455               	retlw	85	;'U'
   486  10FB  3452               	retlw	82	;'R'
   487  10FC  3445               	retlw	69	;'E'
   488  10FD  3420               	retlw	32	;' '
   489  10FE  3400               	retlw	0
   490  10FF                     STR_35:	
   491  10FF  3463               	retlw	99	;'c'
   492  1100  3461               	retlw	97	;'a'
   493  1101  3475               	retlw	117	;'u'
   494  1102  3474               	retlw	116	;'t'
   495  1103  3469               	retlw	105	;'i'
   496  1104  346F               	retlw	111	;'o'
   497  1105  346E               	retlw	110	;'n'
   498  1106  3421               	retlw	33	;'!'
   499  1107  3421               	retlw	33	;'!'
   500  1108  3421               	retlw	33	;'!'
   501  1109  3421               	retlw	33	;'!'
   502  110A  3421               	retlw	33	;'!'
   503  110B  3400               	retlw	0
   504  110C                     STR_2:	
   505  110C  3473               	retlw	115	;'s'
   506  110D  3474               	retlw	116	;'t'
   507  110E  3461               	retlw	97	;'a'
   508  110F  3474               	retlw	116	;'t'
   509  1110  3475               	retlw	117	;'u'
   510  1111  3473               	retlw	115	;'s'
   511  1112  3420               	retlw	32	;' '
   512  1113  343A               	retlw	58	;':'
   513  1114  3420               	retlw	32	;' '
   514  1115  344F               	retlw	79	;'O'
   515  1116  3446               	retlw	70	;'F'
   516  1117  3446               	retlw	70	;'F'
   517  1118  3400               	retlw	0
   518  1119                     STR_1:	
   519  1119  3473               	retlw	115	;'s'
   520  111A  3474               	retlw	116	;'t'
   521  111B  3461               	retlw	97	;'a'
   522  111C  3474               	retlw	116	;'t'
   523  111D  3475               	retlw	117	;'u'
   524  111E  3473               	retlw	115	;'s'
   525  111F  3420               	retlw	32	;' '
   526  1120  343A               	retlw	58	;':'
   527  1121  3420               	retlw	32	;' '
   528  1122  344F               	retlw	79	;'O'
   529  1123  344E               	retlw	78	;'N'
   530  1124  3400               	retlw	0
   531  1125                     STR_8:	
   532  1125  344C               	retlw	76	;'L'
   533  1126  344F               	retlw	79	;'O'
   534  1127  3447               	retlw	71	;'G'
   535  1128  3449               	retlw	73	;'I'
   536  1129  344E               	retlw	78	;'N'
   537  112A  3453               	retlw	83	;'S'
   538  112B  342E               	retlw	46	;'.'
   539  112C  342E               	retlw	46	;'.'
   540  112D  342E               	retlw	46	;'.'
   541  112E  342E               	retlw	46	;'.'
   542  112F  3400               	retlw	0
   543  1130                     STR_34:	
   544  1130  3470               	retlw	112	;'p'
   545  1131  3475               	retlw	117	;'u'
   546  1132  346D               	retlw	109	;'m'
   547  1133  3470               	retlw	112	;'p'
   548  1134  3420               	retlw	32	;' '
   549  1135  3466               	retlw	102	;'f'
   550  1136  3461               	retlw	97	;'a'
   551  1137  3475               	retlw	117	;'u'
   552  1138  346C               	retlw	108	;'l'
   553  1139  3474               	retlw	116	;'t'
   554  113A  3400               	retlw	0
   555  113B                     STR_10:	
   556  113B  344D               	retlw	77	;'M'
   557  113C  3441               	retlw	65	;'A'
   558  113D  3458               	retlw	88	;'X'
   559  113E  3420               	retlw	32	;' '
   560  113F  3454               	retlw	84	;'T'
   561  1140  3445               	retlw	69	;'E'
   562  1141  344D               	retlw	77	;'M'
   563  1142  3450               	retlw	80	;'P'
   564  1143  343A               	retlw	58	;':'
   565  1144  3400               	retlw	0
   566  1145                     STR_30:	
   567  1145  344C               	retlw	76	;'L'
   568  1146  344F               	retlw	79	;'O'
   569  1147  3457               	retlw	87	;'W'
   570  1148  3420               	retlw	32	;' '
   571  1149  3457               	retlw	87	;'W'
   572  114A  3461               	retlw	97	;'a'
   573  114B  3474               	retlw	116	;'t'
   574  114C  3465               	retlw	101	;'e'
   575  114D  3472               	retlw	114	;'r'
   576  114E  3400               	retlw	0
   577  114F                     STR_15:	
   578  114F  3452               	retlw	82	;'R'
   579  1150  3445               	retlw	69	;'E'
   580  1151  3441               	retlw	65	;'A'
   581  1152  3444               	retlw	68	;'D'
   582  1153  3459               	retlw	89	;'Y'
   583  1154  342E               	retlw	46	;'.'
   584  1155  342E               	retlw	46	;'.'
   585  1156  342E               	retlw	46	;'.'
   586  1157  3400               	retlw	0
   587  1158                     STR_21:	
   588  1158  3420               	retlw	32	;' '
   589  1159  3441               	retlw	65	;'A'
   590  115A  3443               	retlw	67	;'C'
   591  115B  3454               	retlw	84	;'T'
   592  115C  3455               	retlw	85	;'U'
   593  115D  3441               	retlw	65	;'A'
   594  115E  344C               	retlw	76	;'L'
   595  115F  343A               	retlw	58	;':'
   596  1160  3400               	retlw	0
   597  1161                     STR_11:	
   598  1161  3443               	retlw	67	;'C'
   599  1162  3468               	retlw	104	;'h'
   600  1163  3465               	retlw	101	;'e'
   601  1164  3463               	retlw	99	;'c'
   602  1165  346B               	retlw	107	;'k'
   603  1166  3469               	retlw	105	;'i'
   604  1167  346E               	retlw	110	;'n'
   605  1168  3467               	retlw	103	;'g'
   606  1169  3400               	retlw	0
   607  116A                     STR_20:	
   608  116A  3453               	retlw	83	;'S'
   609  116B  3445               	retlw	69	;'E'
   610  116C  3454               	retlw	84	;'T'
   611  116D  343A               	retlw	58	;':'
   612  116E  3400               	retlw	0
   613  116F                     STR_9:	
   614  116F  3453               	retlw	83	;'S'
   615  1170  3445               	retlw	69	;'E'
   616  1171  3454               	retlw	84	;'T'
   617  1172  3400               	retlw	0
   618  1173                     STR_6:	
   619  1173  342A               	retlw	42	;'*'
   620  1174  342A               	retlw	42	;'*'
   621  1175  3400               	retlw	0
   622  1176                     STR_19:	
   623  1176  3443               	retlw	67	;'C'
   624  1177  3400               	retlw	0
   625  1024                     
   626                           ; #config settings
   627  0000                     
   628                           	psect	cinit
   629  07F5                     start_initialization:	
   630  07F5                     __initialization:	
   631                           
   632                           ; Clear objects allocated to BANK0
   633  07F5  1383               	bcf	3,7	;select IRP bank0
   634  07F6  304D               	movlw	low __pbssBANK0
   635  07F7  0084               	movwf	4
   636  07F8  3070               	movlw	low (__pbssBANK0+35)
   637  07F9  120A  158A  215E   	fcall	clear_ram0
   638  07FC                     end_of_initialization:	
   639                           ;End of C runtime variable initialization code
   640                           
   641  07FC                     __end_of__initialization:	
   642  07FC  0183               	clrf	3
   643  07FD  120A  158A  2DCA   	ljmp	_main	;jump to C main() function
   644                           
   645                           	psect	bssBANK0
   646  004D                     __pbssBANK0:	
   647  004D                     _flag7:	
   648  004D                     	ds	2
   649  004F                     _flag6:	
   650  004F                     	ds	2
   651  0051                     _flag5:	
   652  0051                     	ds	2
   653  0053                     _flag4:	
   654  0053                     	ds	2
   655  0055                     _flag2:	
   656  0055                     	ds	2
   657  0057                     _flag1:	
   658  0057                     	ds	2
   659  0059                     _sensor:	
   660  0059                     	ds	2
   661  005B                     _pgm1:	
   662  005B                     	ds	2
   663  005D                     _strky:	
   664  005D                     	ds	2
   665  005F                     _startval:	
   666  005F                     	ds	2
   667  0061                     _tempval:	
   668  0061                     	ds	2
   669  0063                     _lowval:	
   670  0063                     	ds	2
   671  0065                     _highval:	
   672  0065                     	ds	2
   673  0067                     _sec:	
   674  0067                     	ds	2
   675  0069                     _pumpfail:	
   676  0069                     	ds	1
   677  006A                     _timerup:	
   678  006A                     	ds	1
   679  006B                     _relayoff:	
   680  006B                     	ds	1
   681  006C                     _relayon:	
   682  006C                     	ds	1
   683  006D                     _waterflag:	
   684  006D                     	ds	1
   685  006E                     _waterchk:	
   686  006E                     	ds	1
   687  006F                     _level:	
   688  006F                     	ds	1
   689                           
   690                           	psect	clrtext
   691  095E                     clear_ram0:	
   692                           ;	Called with FSR containing the base address, and
   693                           ;	W with the last address+1
   694                           
   695  095E  0064               	clrwdt	;clear the watchdog before getting into this loop
   696  095F                     clrloop0:	
   697  095F  0180               	clrf	0	;clear RAM location pointed to by FSR
   698  0960  0A84               	incf	4,f	;increment pointer
   699  0961  0604               	xorwf	4,w	;XOR with final address
   700  0962  1903               	btfsc	3,2	;have we reached the end yet?
   701  0963  3400               	retlw	0	;all done for this memory range, return
   702  0964  0604               	xorwf	4,w	;XOR again to restore value
   703  0965  295F               	goto	clrloop0	;do the next byte
   704                           
   705                           	psect	cstackCOMMON
   706  0070                     __pcstackCOMMON:	
   707  0070                     ?_eeprom_read:	
   708  0070                     ??_eeprom_read:	
   709                           ; 1 bytes @ 0x0
   710                           
   711  0070                     ?_Lcd_Port:	
   712                           ; 1 bytes @ 0x0
   713                           
   714  0070                     ??_Lcd_Port:	
   715                           ; 1 bytes @ 0x0
   716                           
   717  0070                     ?_Lcd_Cmd:	
   718                           ; 1 bytes @ 0x0
   719                           
   720  0070                     ?_Lcd_Clear:	
   721                           ; 1 bytes @ 0x0
   722                           
   723  0070                     ?_Lcd_Init:	
   724                           ; 1 bytes @ 0x0
   725                           
   726  0070                     ?_Lcd_Write_Char:	
   727                           ; 1 bytes @ 0x0
   728                           
   729  0070                     ?_reset:	
   730                           ; 1 bytes @ 0x0
   731                           
   732  0070                     ??_reset:	
   733                           ; 1 bytes @ 0x0
   734                           
   735  0070                     ?_write:	
   736                           ; 1 bytes @ 0x0
   737                           
   738  0070                     ??_write:	
   739                           ; 1 bytes @ 0x0
   740                           
   741  0070                     ?_read:	
   742                           ; 1 bytes @ 0x0
   743                           
   744  0070                     ??_read:	
   745                           ; 1 bytes @ 0x0
   746                           
   747  0070                     ?_main:	
   748                           ; 1 bytes @ 0x0
   749                           
   750  0070                     ?___wmul:	
   751                           ; 2 bytes @ 0x0
   752                           
   753  0070                     ?___awdiv:	
   754                           ; 2 bytes @ 0x0
   755                           
   756  0070                     ?___lwdiv:	
   757                           ; 2 bytes @ 0x0
   758                           
   759  0070                     ?___lwmod:	
   760                           ; 2 bytes @ 0x0
   761                           
   762  0070                     Lcd_Port@a:	
   763                           ; 2 bytes @ 0x0
   764                           
   765  0070                     ___wmul@multiplier:	
   766                           ; 1 bytes @ 0x0
   767                           
   768  0070                     ___awdiv@divisor:	
   769                           ; 2 bytes @ 0x0
   770                           
   771  0070                     ___lwdiv@divisor:	
   772                           ; 2 bytes @ 0x0
   773                           
   774  0070                     ___lwmod@divisor:	
   775                           ; 2 bytes @ 0x0
   776                           
   777                           
   778                           ; 2 bytes @ 0x0
   779  0070                     	ds	1
   780  0071                     ??_Lcd_Cmd:	
   781  0071                     ??_Lcd_Write_Char:	
   782                           ; 1 bytes @ 0x1
   783                           
   784  0071                     write@WRT:	
   785                           ; 1 bytes @ 0x1
   786                           
   787  0071                     eeprom_read@addr:	
   788                           ; 1 bytes @ 0x1
   789                           
   790                           
   791                           ; 1 bytes @ 0x1
   792  0071                     	ds	1
   793  0072                     Lcd_Write_Char@temp:	
   794  0072                     write@Cmd:	
   795                           ; 1 bytes @ 0x2
   796                           
   797  0072                     read@result:	
   798                           ; 1 bytes @ 0x2
   799                           
   800  0072                     ___wmul@multiplicand:	
   801                           ; 1 bytes @ 0x2
   802                           
   803  0072                     ___awdiv@dividend:	
   804                           ; 2 bytes @ 0x2
   805                           
   806  0072                     ___lwdiv@dividend:	
   807                           ; 2 bytes @ 0x2
   808                           
   809  0072                     ___lwmod@dividend:	
   810                           ; 2 bytes @ 0x2
   811                           
   812                           
   813                           ; 2 bytes @ 0x2
   814  0072                     	ds	1
   815  0073                     Lcd_Cmd@a:	
   816  0073                     Lcd_Write_Char@y:	
   817                           ; 1 bytes @ 0x3
   818                           
   819  0073                     write@i:	
   820                           ; 1 bytes @ 0x3
   821                           
   822  0073                     read@i:	
   823                           ; 1 bytes @ 0x3
   824                           
   825                           
   826                           ; 1 bytes @ 0x3
   827  0073                     	ds	1
   828  0074                     ??_Lcd_Clear:	
   829  0074                     ?_Lcd_Set_Cursor:	
   830                           ; 1 bytes @ 0x4
   831                           
   832  0074                     ??_Lcd_Init:	
   833                           ; 1 bytes @ 0x4
   834                           
   835  0074                     ??___wmul:	
   836                           ; 1 bytes @ 0x4
   837                           
   838  0074                     ??___awdiv:	
   839                           ; 1 bytes @ 0x4
   840                           
   841  0074                     ??___lwdiv:	
   842                           ; 1 bytes @ 0x4
   843                           
   844  0074                     ??___lwmod:	
   845                           ; 1 bytes @ 0x4
   846                           
   847  0074                     ?_checktemp:	
   848                           ; 1 bytes @ 0x4
   849                           
   850  0074                     Lcd_Set_Cursor@b:	
   851                           ; 2 bytes @ 0x4
   852                           
   853  0074                     Lcd_Write_Char@a:	
   854                           ; 1 bytes @ 0x4
   855                           
   856  0074                     ___wmul@product:	
   857                           ; 1 bytes @ 0x4
   858                           
   859                           
   860                           ; 2 bytes @ 0x4
   861  0074                     	ds	1
   862  0075                     ??_Lcd_Set_Cursor:	
   863  0075                     ?_Lcd_Write_String:	
   864                           ; 1 bytes @ 0x5
   865                           
   866  0075                     ___awdiv@counter:	
   867                           ; 1 bytes @ 0x5
   868                           
   869  0075                     ___lwmod@counter:	
   870                           ; 1 bytes @ 0x5
   871                           
   872  0075                     Lcd_Write_String@a:	
   873                           ; 1 bytes @ 0x5
   874                           
   875  0075                     ___lwdiv@quotient:	
   876                           ; 2 bytes @ 0x5
   877                           
   878                           
   879                           ; 2 bytes @ 0x5
   880  0075                     	ds	1
   881  0076                     ??_checktemp:	
   882  0076                     ?_Read_EEPROM:	
   883                           ; 1 bytes @ 0x6
   884                           
   885  0076                     Read_EEPROM@b2:	
   886                           ; 2 bytes @ 0x6
   887                           
   888  0076                     ___awdiv@sign:	
   889                           ; 1 bytes @ 0x6
   890                           
   891                           
   892                           ; 1 bytes @ 0x6
   893  0076                     	ds	1
   894  0077                     ??_Lcd_Write_String:	
   895  0077                     Lcd_Set_Cursor@a:	
   896                           ; 1 bytes @ 0x7
   897                           
   898  0077                     ___lwdiv@counter:	
   899                           ; 1 bytes @ 0x7
   900                           
   901  0077                     ___awdiv@quotient:	
   902                           ; 1 bytes @ 0x7
   903                           
   904                           
   905                           ; 2 bytes @ 0x7
   906  0077                     	ds	1
   907  0078                     ?_eeprom_write:	
   908  0078                     ?_lcddisplay:	
   909                           ; 1 bytes @ 0x8
   910                           
   911  0078                     ??_Read_EEPROM:	
   912                           ; 1 bytes @ 0x8
   913                           
   914  0078                     Lcd_Set_Cursor@z:	
   915                           ; 1 bytes @ 0x8
   916                           
   917  0078                     eeprom_write@value:	
   918                           ; 1 bytes @ 0x8
   919                           
   920  0078                     checktemp@tempL:	
   921                           ; 1 bytes @ 0x8
   922                           
   923  0078                     lcddisplay@num:	
   924                           ; 2 bytes @ 0x8
   925                           
   926                           
   927                           ; 2 bytes @ 0x8
   928  0078                     	ds	1
   929  0079                     ??_eeprom_write:	
   930  0079                     Lcd_Set_Cursor@y:	
   931                           ; 1 bytes @ 0x9
   932                           
   933                           
   934                           ; 1 bytes @ 0x9
   935  0079                     	ds	1
   936  007A                     ??_lcddisplay:	
   937  007A                     Lcd_Set_Cursor@temp:	
   938                           ; 1 bytes @ 0xA
   939                           
   940  007A                     eeprom_write@addr:	
   941                           ; 1 bytes @ 0xA
   942                           
   943  007A                     Lcd_Write_String@i:	
   944                           ; 1 bytes @ 0xA
   945                           
   946  007A                     checktemp@tempH:	
   947                           ; 2 bytes @ 0xA
   948                           
   949                           
   950                           ; 2 bytes @ 0xA
   951  007A                     	ds	1
   952  007B                     ?_Write_EEPROM:	
   953  007B                     Write_EEPROM@a2:	
   954                           ; 1 bytes @ 0xB
   955                           
   956                           
   957                           ; 1 bytes @ 0xB
   958  007B                     	ds	1
   959  007C                     checktemp@temp:	
   960  007C                     Write_EEPROM@data_value:	
   961                           ; 2 bytes @ 0xC
   962                           
   963                           
   964                           ; 2 bytes @ 0xC
   965  007C                     	ds	2
   966                           
   967                           	psect	cstackBANK0
   968  0020                     __pcstackBANK0:	
   969  0020                     ??_Write_EEPROM:	
   970  0020                     Read_EEPROM@b1:	
   971                           ; 1 bytes @ 0x0
   972                           
   973                           
   974                           ; 1 bytes @ 0x0
   975  0020                     	ds	1
   976  0021                     Write_EEPROM@a1:	
   977  0021                     Read_EEPROM@c1:	
   978                           ; 1 bytes @ 0x1
   979                           
   980                           
   981                           ; 2 bytes @ 0x1
   982  0021                     	ds	2
   983  0023                     Read_EEPROM@c2:	
   984                           
   985                           ; 2 bytes @ 0x3
   986  0023                     	ds	2
   987  0025                     ??_main:	
   988                           
   989                           ; 1 bytes @ 0x5
   990  0025                     	ds	3
   991  0028                     main@switchsel:	
   992                           
   993                           ; 2 bytes @ 0x8
   994  0028                     	ds	2
   995  002A                     main@prg:	
   996                           
   997                           ; 2 bytes @ 0xA
   998  002A                     	ds	2
   999  002C                     main@open:	
  1000                           
  1001                           ; 2 bytes @ 0xC
  1002  002C                     	ds	2
  1003  002E                     main@tempflag1:	
  1004                           
  1005                           ; 2 bytes @ 0xE
  1006  002E                     	ds	2
  1007  0030                     main@checkte:	
  1008                           
  1009                           ; 2 bytes @ 0x10
  1010  0030                     	ds	2
  1011  0032                     main@power:	
  1012                           
  1013                           ; 2 bytes @ 0x12
  1014  0032                     	ds	2
  1015  0034                     main@j:	
  1016                           
  1017                           ; 2 bytes @ 0x14
  1018  0034                     	ds	2
  1019  0036                     main@tempflag2:	
  1020                           
  1021                           ; 2 bytes @ 0x16
  1022  0036                     	ds	2
  1023  0038                     main@p:	
  1024                           
  1025                           ; 1 bytes @ 0x18
  1026  0038                     	ds	1
  1027  0039                     main@tempvalhigh:	
  1028                           
  1029                           ; 2 bytes @ 0x19
  1030  0039                     	ds	2
  1031  003B                     main@l:	
  1032                           
  1033                           ; 2 bytes @ 0x1B
  1034  003B                     	ds	2
  1035  003D                     main@i:	
  1036                           
  1037                           ; 2 bytes @ 0x1D
  1038  003D                     	ds	2
  1039  003F                     main@i_193:	
  1040                           
  1041                           ; 2 bytes @ 0x1F
  1042  003F                     	ds	2
  1043  0041                     main@i_197:	
  1044                           
  1045                           ; 2 bytes @ 0x21
  1046  0041                     	ds	2
  1047  0043                     main@current:	
  1048                           
  1049                           ; 1 bytes @ 0x23
  1050  0043                     	ds	1
  1051  0044                     main@wrong:	
  1052                           
  1053                           ; 1 bytes @ 0x24
  1054  0044                     	ds	1
  1055  0045                     main@pump:	
  1056                           
  1057                           ; 1 bytes @ 0x25
  1058  0045                     	ds	1
  1059  0046                     main@powerval:	
  1060                           
  1061                           ; 2 bytes @ 0x26
  1062  0046                     	ds	2
  1063  0048                     main@tcount:	
  1064                           
  1065                           ; 2 bytes @ 0x28
  1066  0048                     	ds	2
  1067  004A                     main@password:	
  1068                           
  1069                           ; 2 bytes @ 0x2A
  1070  004A                     	ds	2
  1071  004C                     main@wcount:	
  1072                           
  1073                           ; 1 bytes @ 0x2C
  1074  004C                     	ds	1
  1075                           
  1076                           	psect	maintext
  1077  0DCA                     __pmaintext:	
  1078 ;;
  1079 ;;Main: autosize = 0, tempsize = 3, incstack = 0, save=0
  1080 ;;
  1081 ;; *************** function _main *****************
  1082 ;; Defined at:
  1083 ;;		line 339 in file "mainbrew1double.c"
  1084 ;; Parameters:    Size  Location     Type
  1085 ;;		None
  1086 ;; Auto vars:     Size  Location     Type
  1087 ;;  i               2   29[BANK0 ] int 
  1088 ;;  l               2   27[BANK0 ] int 
  1089 ;;  tempvalhigh     2   25[BANK0 ] int 
  1090 ;;  tempflag2       2   22[BANK0 ] int 
  1091 ;;  checkte         2   16[BANK0 ] int 
  1092 ;;  i               2   31[BANK0 ] int 
  1093 ;;  tempflag1       2   14[BANK0 ] int 
  1094 ;;  i               2   33[BANK0 ] int 
  1095 ;;  p               1   24[BANK0 ] unsigned char 
  1096 ;;  powerval        2   38[BANK0 ] int 
  1097 ;;  password        2   42[BANK0 ] int 
  1098 ;;  tcount          2   40[BANK0 ] int 
  1099 ;;  j               2   20[BANK0 ] int 
  1100 ;;  power           2   18[BANK0 ] int 
  1101 ;;  open            2   12[BANK0 ] int 
  1102 ;;  prg             2   10[BANK0 ] int 
  1103 ;;  switchsel       2    8[BANK0 ] int 
  1104 ;;  wcount          1   44[BANK0 ] unsigned char 
  1105 ;;  pump            1   37[BANK0 ] unsigned char 
  1106 ;;  wrong           1   36[BANK0 ] unsigned char 
  1107 ;;  current         1   35[BANK0 ] unsigned char 
  1108 ;; Return value:  Size  Location     Type
  1109 ;;                  2  182[None  ] int 
  1110 ;; Registers used:
  1111 ;;		wreg, fsr0l, fsr0h, status,2, status,0, btemp+1, pclath, cstack
  1112 ;; Tracked objects:
  1113 ;;		On entry : B00/0
  1114 ;;		On exit  : 0/0
  1115 ;;		Unchanged: 0/0
  1116 ;; Data sizes:     COMMON   BANK0   BANK1   BANK3   BANK2
  1117 ;;      Params:         0       0       0       0       0
  1118 ;;      Locals:         0      37       0       0       0
  1119 ;;      Temps:          0       3       0       0       0
  1120 ;;      Totals:         0      40       0       0       0
  1121 ;;Total ram usage:       40 bytes
  1122 ;; Hardware stack levels required when called:    3
  1123 ;; This function calls:
  1124 ;;		_Lcd_Clear
  1125 ;;		_Lcd_Init
  1126 ;;		_Lcd_Set_Cursor
  1127 ;;		_Lcd_Write_Char
  1128 ;;		_Lcd_Write_String
  1129 ;;		_Read_EEPROM
  1130 ;;		_Write_EEPROM
  1131 ;;		___awdiv
  1132 ;;		_checktemp
  1133 ;;		_lcddisplay
  1134 ;; This function is called by:
  1135 ;;		Startup code after reset
  1136 ;; This function uses a non-reentrant model
  1137 ;;
  1138                           
  1139                           
  1140                           ;psect for function _main
  1141  0DCA                     _main:	
  1142                           
  1143                           ;mainbrew1double.c: 341: TRISA = 0x01;
  1144                           
  1145                           ;incstack = 0
  1146                           ; Regs used in _main: [wreg-fsr0h+status,2+status,0+btemp+1+pclath+cstack]
  1147  0DCA  3001               	movlw	1
  1148  0DCB  1683               	bsf	3,5	;RP0=1, select bank1
  1149  0DCC  1303               	bcf	3,6	;RP1=0, select bank1
  1150  0DCD  0085               	movwf	5	;volatile
  1151                           
  1152                           ;mainbrew1double.c: 342: TRISB = 0xF0;
  1153  0DCE  30F0               	movlw	240
  1154  0DCF  0086               	movwf	6	;volatile
  1155                           
  1156                           ;mainbrew1double.c: 343: TRISC = 0xC0;
  1157  0DD0  30C0               	movlw	192
  1158  0DD1  0087               	movwf	7	;volatile
  1159                           
  1160                           ;mainbrew1double.c: 346: OPTION_REG = 0X07;
  1161  0DD2  3007               	movlw	7
  1162  0DD3  0081               	movwf	1	;volatile
  1163                           
  1164                           ;mainbrew1double.c: 347: TMR0 = 0;
  1165  0DD4  1283               	bcf	3,5	;RP0=0, select bank0
  1166  0DD5  1303               	bcf	3,6	;RP1=0, select bank0
  1167  0DD6  0181               	clrf	1	;volatile
  1168                           
  1169                           ;mainbrew1double.c: 348: ANSEL = 0X00;
  1170  0DD7  1683               	bsf	3,5	;RP0=1, select bank3
  1171  0DD8  1703               	bsf	3,6	;RP1=1, select bank3
  1172  0DD9  0188               	clrf	8	;volatile
  1173                           
  1174                           ;mainbrew1double.c: 349: ANSELH = 0X00;
  1175  0DDA  0189               	clrf	9	;volatile
  1176                           
  1177                           ;mainbrew1double.c: 350: WPUB = 0XF0;
  1178  0DDB  30F0               	movlw	240
  1179  0DDC  1683               	bsf	3,5	;RP0=1, select bank1
  1180  0DDD  1303               	bcf	3,6	;RP1=0, select bank1
  1181  0DDE  0095               	movwf	21	;volatile
  1182                           
  1183                           ;mainbrew1double.c: 352: int prg = 0;
  1184  0DDF  1283               	bcf	3,5	;RP0=0, select bank0
  1185  0DE0  1303               	bcf	3,6	;RP1=0, select bank0
  1186  0DE1  01AA               	clrf	main@prg
  1187  0DE2  01AB               	clrf	main@prg+1
  1188                           
  1189                           ;mainbrew1double.c: 353: int password = 0;
  1190  0DE3  01CA               	clrf	main@password
  1191  0DE4  01CB               	clrf	main@password+1
  1192                           
  1193                           ;mainbrew1double.c: 354: int switchsel = 0;
  1194  0DE5  01A8               	clrf	main@switchsel
  1195  0DE6  01A9               	clrf	main@switchsel+1
  1196                           
  1197                           ;mainbrew1double.c: 357: int open = 0;
  1198  0DE7  01AC               	clrf	main@open
  1199  0DE8  01AD               	clrf	main@open+1
  1200                           
  1201                           ;mainbrew1double.c: 359: char wrong = 0;
  1202  0DE9  01C4               	clrf	main@wrong
  1203                           
  1204                           ;mainbrew1double.c: 361: int power = 0;
  1205  0DEA  01B2               	clrf	main@power
  1206  0DEB  01B3               	clrf	main@power+1
  1207                           
  1208                           ;mainbrew1double.c: 363: RC0 = 0;
  1209  0DEC  1007               	bcf	7,0	;volatile
  1210                           
  1211                           ;mainbrew1double.c: 364: RA1 = 0;
  1212  0DED  1085               	bcf	5,1	;volatile
  1213                           
  1214                           ;mainbrew1double.c: 366: int j = 0;
  1215  0DEE  01B4               	clrf	main@j
  1216  0DEF  01B5               	clrf	main@j+1
  1217                           
  1218                           ;mainbrew1double.c: 369: char current = 0;
  1219  0DF0  01C3               	clrf	main@current
  1220                           
  1221                           ;mainbrew1double.c: 370: int tcount = 0;
  1222  0DF1  01C8               	clrf	main@tcount
  1223  0DF2  01C9               	clrf	main@tcount+1
  1224                           
  1225                           ;mainbrew1double.c: 371: char pump = 0;
  1226  0DF3  01C5               	clrf	main@pump
  1227                           
  1228                           ;mainbrew1double.c: 372: char wcount = 0;
  1229  0DF4  01CC               	clrf	main@wcount
  1230                           
  1231                           ;mainbrew1double.c: 375: Lcd_Init();
  1232  0DF5  120A  118A  202A  120A  158A  	fcall	_Lcd_Init
  1233                           
  1234                           ;mainbrew1double.c: 376: Lcd_Clear();
  1235  0DFA  120A  158A  2166  120A  158A  	fcall	_Lcd_Clear
  1236                           
  1237                           ;mainbrew1double.c: 378: lowval = Read_EEPROM(0,1);
  1238  0DFF  01F6               	clrf	Read_EEPROM@b2
  1239  0E00  0AF6               	incf	Read_EEPROM@b2,f
  1240  0E01  3000               	movlw	0
  1241  0E02  120A  158A  22FC  120A  158A  	fcall	_Read_EEPROM
  1242  0E07  0877               	movf	?_Read_EEPROM+1,w
  1243  0E08  1283               	bcf	3,5	;RP0=0, select bank0
  1244  0E09  1303               	bcf	3,6	;RP1=0, select bank0
  1245  0E0A  00E4               	movwf	_lowval+1
  1246  0E0B  0876               	movf	?_Read_EEPROM,w
  1247  0E0C  00E3               	movwf	_lowval
  1248                           
  1249                           ;mainbrew1double.c: 379: highval = Read_EEPROM(2,3);
  1250  0E0D  3003               	movlw	3
  1251  0E0E  00A5               	movwf	??_main
  1252  0E0F  0825               	movf	??_main,w
  1253  0E10  00F6               	movwf	Read_EEPROM@b2
  1254  0E11  3002               	movlw	2
  1255  0E12  120A  158A  22FC  120A  158A  	fcall	_Read_EEPROM
  1256  0E17  0877               	movf	?_Read_EEPROM+1,w
  1257  0E18  1283               	bcf	3,5	;RP0=0, select bank0
  1258  0E19  1303               	bcf	3,6	;RP1=0, select bank0
  1259  0E1A  00E6               	movwf	_highval+1
  1260  0E1B  0876               	movf	?_Read_EEPROM,w
  1261  0E1C  00E5               	movwf	_highval
  1262  0E1D  120A  118A  2D75   	goto	l2269
  1263  0E20                     l2273:	
  1264                           
  1265                           ;mainbrew1double.c: 389: {
  1266                           ;mainbrew1double.c: 391: sensor = checktemp();
  1267  0E20  120A  118A  2085  120A  158A  	fcall	_checktemp
  1268  0E25  0875               	movf	?_checktemp+1,w
  1269  0E26  1283               	bcf	3,5	;RP0=0, select bank0
  1270  0E27  1303               	bcf	3,6	;RP1=0, select bank0
  1271  0E28  00DA               	movwf	_sensor+1
  1272  0E29  0874               	movf	?_checktemp,w
  1273  0E2A  00D9               	movwf	_sensor
  1274                           
  1275                           ;mainbrew1double.c: 392: if(sensor >0)
  1276  0E2B  085A               	movf	_sensor+1,w
  1277  0E2C  3A80               	xorlw	128
  1278  0E2D  00FF               	movwf	127
  1279  0E2E  3080               	movlw	128
  1280  0E2F  027F               	subwf	127,w
  1281  0E30  1D03               	skipz
  1282  0E31  2E34               	goto	u2195
  1283  0E32  3001               	movlw	1
  1284  0E33  0259               	subwf	_sensor,w
  1285  0E34                     u2195:	
  1286  0E34  120A  118A  1C03   	skipc
  1287  0E37  2D2B               	goto	l2773
  1288                           
  1289                           ;mainbrew1double.c: 393: {
  1290                           ;mainbrew1double.c: 394: Lcd_Set_Cursor(1,1);
  1291  0E38  01F4               	clrf	Lcd_Set_Cursor@b
  1292  0E39  0AF4               	incf	Lcd_Set_Cursor@b,f
  1293  0E3A  3001               	movlw	1
  1294  0E3B  120A  158A  23EB  120A  158A  	fcall	_Lcd_Set_Cursor
  1295                           
  1296                           ;mainbrew1double.c: 395: Lcd_Write_String(" * BREWMASTER * ");
  1297  0E40  3026               	movlw	low (STR_3| (0+32768))
  1298  0E41  00F5               	movwf	Lcd_Write_String@a
  1299  0E42  3090               	movlw	high (STR_3| (0+32768))
  1300  0E43  00F6               	movwf	Lcd_Write_String@a+1
  1301  0E44  120A  158A  2371  120A  158A  	fcall	_Lcd_Write_String
  1302                           
  1303                           ;mainbrew1double.c: 396: Lcd_Set_Cursor(2,1);
  1304  0E49  01F4               	clrf	Lcd_Set_Cursor@b
  1305  0E4A  0AF4               	incf	Lcd_Set_Cursor@b,f
  1306  0E4B  3002               	movlw	2
  1307  0E4C  120A  158A  23EB  120A  158A  	fcall	_Lcd_Set_Cursor
  1308                           
  1309                           ;mainbrew1double.c: 397: Lcd_Write_String(" EXTERNAL BOILER");
  1310  0E51  3048               	movlw	low (STR_4| (0+32768))
  1311  0E52  00F5               	movwf	Lcd_Write_String@a
  1312  0E53  3090               	movlw	high (STR_4| (0+32768))
  1313  0E54  00F6               	movwf	Lcd_Write_String@a+1
  1314  0E55  120A  158A  2371  120A  158A  	fcall	_Lcd_Write_String
  1315                           
  1316                           ;mainbrew1double.c: 398: _delay((unsigned long)((1000)*(4000000/4000.0)));
  1317  0E5A  3006               	movlw	6
  1318  0E5B  1283               	bcf	3,5	;RP0=0, select bank0
  1319  0E5C  1303               	bcf	3,6	;RP1=0, select bank0
  1320  0E5D  00A7               	movwf	??_main+2
  1321  0E5E  3013               	movlw	19
  1322  0E5F  00A6               	movwf	??_main+1
  1323  0E60  30AD               	movlw	173
  1324  0E61  00A5               	movwf	??_main
  1325  0E62                     u3277:	
  1326  0E62  0BA5               	decfsz	??_main,f
  1327  0E63  2E62               	goto	u3277
  1328  0E64  0BA6               	decfsz	??_main+1,f
  1329  0E65  2E62               	goto	u3277
  1330  0E66  0BA7               	decfsz	??_main+2,f
  1331  0E67  2E62               	goto	u3277
  1332                           
  1333                           ;mainbrew1double.c: 399: RA7 = 1;
  1334  0E68  1283               	bcf	3,5	;RP0=0, select bank0
  1335  0E69  1303               	bcf	3,6	;RP1=0, select bank0
  1336  0E6A  1785               	bsf	5,7	;volatile
  1337                           
  1338                           ;mainbrew1double.c: 400: _delay((unsigned long)((1000)*(4000000/4000.0)));
  1339  0E6B  3006               	movlw	6
  1340  0E6C  1283               	bcf	3,5	;RP0=0, select bank0
  1341  0E6D  1303               	bcf	3,6	;RP1=0, select bank0
  1342  0E6E  00A7               	movwf	??_main+2
  1343  0E6F  3013               	movlw	19
  1344  0E70  00A6               	movwf	??_main+1
  1345  0E71  30AD               	movlw	173
  1346  0E72  00A5               	movwf	??_main
  1347  0E73                     u3287:	
  1348  0E73  0BA5               	decfsz	??_main,f
  1349  0E74  2E73               	goto	u3287
  1350  0E75  0BA6               	decfsz	??_main+1,f
  1351  0E76  2E73               	goto	u3287
  1352  0E77  0BA7               	decfsz	??_main+2,f
  1353  0E78  2E73               	goto	u3287
  1354                           
  1355                           ;mainbrew1double.c: 401: RA7 = 0;
  1356  0E79  1283               	bcf	3,5	;RP0=0, select bank0
  1357  0E7A  1303               	bcf	3,6	;RP1=0, select bank0
  1358  0E7B  1385               	bcf	5,7	;volatile
  1359                           
  1360                           ;mainbrew1double.c: 402: Lcd_Clear();
  1361  0E7C  120A  158A  2166  120A  158A  	fcall	_Lcd_Clear
  1362                           
  1363                           ;mainbrew1double.c: 403: int powerval;
  1364                           ;mainbrew1double.c: 404: powerval=Read_EEPROM(4,5);
  1365  0E81  3005               	movlw	5
  1366  0E82  1283               	bcf	3,5	;RP0=0, select bank0
  1367  0E83  1303               	bcf	3,6	;RP1=0, select bank0
  1368  0E84  00A5               	movwf	??_main
  1369  0E85  0825               	movf	??_main,w
  1370  0E86  00F6               	movwf	Read_EEPROM@b2
  1371  0E87  3004               	movlw	4
  1372  0E88  120A  158A  22FC  120A  158A  	fcall	_Read_EEPROM
  1373  0E8D  0877               	movf	?_Read_EEPROM+1,w
  1374  0E8E  1283               	bcf	3,5	;RP0=0, select bank0
  1375  0E8F  1303               	bcf	3,6	;RP1=0, select bank0
  1376  0E90  00C7               	movwf	main@powerval+1
  1377  0E91  0876               	movf	?_Read_EEPROM,w
  1378  0E92  00C6               	movwf	main@powerval
  1379                           
  1380                           ;mainbrew1double.c: 405: if(!RA0)
  1381  0E93  1805               	btfsc	5,0	;volatile
  1382  0E94  2FFD               	goto	L9
  1383                           
  1384                           ;mainbrew1double.c: 406: {
  1385                           ;mainbrew1double.c: 407: char p=0;
  1386  0E95  01B8               	clrf	main@p
  1387  0E96                     l2299:	
  1388                           ;mainbrew1double.c: 408: start:
  1389                           
  1390                           
  1391                           ;mainbrew1double.c: 411: if(wrong == 3)
  1392  0E96  3003               	movlw	3
  1393  0E97  0644               	xorwf	main@wrong,w
  1394  0E98  1D03               	btfss	3,2
  1395  0E99  2EB1               	goto	l2309
  1396                           
  1397                           ;mainbrew1double.c: 412: {
  1398                           ;mainbrew1double.c: 413: RA7 = 1;
  1399  0E9A  1785               	bsf	5,7	;volatile
  1400                           
  1401                           ;mainbrew1double.c: 414: _delay((unsigned long)((1400)*(4000000/4000.0)));
  1402  0E9B  3008               	movlw	8
  1403  0E9C  1283               	bcf	3,5	;RP0=0, select bank0
  1404  0E9D  1303               	bcf	3,6	;RP1=0, select bank0
  1405  0E9E  00A7               	movwf	??_main+2
  1406  0E9F  301B               	movlw	27
  1407  0EA0  00A6               	movwf	??_main+1
  1408  0EA1  3026               	movlw	38
  1409  0EA2  00A5               	movwf	??_main
  1410  0EA3                     u3297:	
  1411  0EA3  0BA5               	decfsz	??_main,f
  1412  0EA4  2EA3               	goto	u3297
  1413  0EA5  0BA6               	decfsz	??_main+1,f
  1414  0EA6  2EA3               	goto	u3297
  1415  0EA7  0BA7               	decfsz	??_main+2,f
  1416  0EA8  2EA3               	goto	u3297
  1417  0EA9  0000               	nop
  1418                           
  1419                           ;mainbrew1double.c: 415: RA7 = 0;
  1420  0EAA  1283               	bcf	3,5	;RP0=0, select bank0
  1421  0EAB  1303               	bcf	3,6	;RP1=0, select bank0
  1422  0EAC  1385               	bcf	5,7	;volatile
  1423                           
  1424                           ;mainbrew1double.c: 416: wrong = 0;
  1425  0EAD  01C4               	clrf	main@wrong
  1426                           
  1427                           ;mainbrew1double.c: 417: goto ready;
  1428  0EAE  120A  118A  292C   	goto	l2473
  1429  0EB1                     l2309:	
  1430                           
  1431                           ;mainbrew1double.c: 418: }
  1432                           ;mainbrew1double.c: 419: Lcd_Clear();
  1433  0EB1  120A  158A  2166  120A  158A  	fcall	_Lcd_Clear
  1434                           
  1435                           ;mainbrew1double.c: 420: Lcd_Set_Cursor(1,1);
  1436  0EB6  01F4               	clrf	Lcd_Set_Cursor@b
  1437  0EB7  0AF4               	incf	Lcd_Set_Cursor@b,f
  1438  0EB8  3001               	movlw	1
  1439  0EB9  120A  158A  23EB  120A  158A  	fcall	_Lcd_Set_Cursor
  1440                           
  1441                           ;mainbrew1double.c: 421: Lcd_Write_String(" ENTER PASSWORD ");
  1442  0EBE  3037               	movlw	low (STR_5| (0+32768))
  1443  0EBF  00F5               	movwf	Lcd_Write_String@a
  1444  0EC0  3090               	movlw	high (STR_5| (0+32768))
  1445  0EC1  00F6               	movwf	Lcd_Write_String@a+1
  1446  0EC2  120A  158A  2371  120A  158A  	fcall	_Lcd_Write_String
  1447                           
  1448                           ;mainbrew1double.c: 422: Lcd_Set_Cursor(2,7);
  1449  0EC7  3007               	movlw	7
  1450  0EC8  1283               	bcf	3,5	;RP0=0, select bank0
  1451  0EC9  1303               	bcf	3,6	;RP1=0, select bank0
  1452  0ECA  00A5               	movwf	??_main
  1453  0ECB  0825               	movf	??_main,w
  1454  0ECC  00F4               	movwf	Lcd_Set_Cursor@b
  1455  0ECD  3002               	movlw	2
  1456  0ECE  120A  158A  23EB  120A  158A  	fcall	_Lcd_Set_Cursor
  1457                           
  1458                           ;mainbrew1double.c: 423: Lcd_Write_String("**");
  1459  0ED3  3073               	movlw	low (STR_6| (0+32768))
  1460  0ED4  00F5               	movwf	Lcd_Write_String@a
  1461  0ED5  3091               	movlw	high (STR_6| (0+32768))
  1462  0ED6  00F6               	movwf	Lcd_Write_String@a+1
  1463  0ED7  120A  158A  2371  120A  158A  	fcall	_Lcd_Write_String
  1464  0EDC                     l2315:	
  1465                           ;mainbrew1double.c: 424: while(1)
  1466                           
  1467                           
  1468                           ;mainbrew1double.c: 425: {
  1469                           ;mainbrew1double.c: 426: if(!RB6)
  1470  0EDC  1283               	bcf	3,5	;RP0=0, select bank0
  1471  0EDD  1303               	bcf	3,6	;RP1=0, select bank0
  1472  0EDE  1B06               	btfsc	6,6	;volatile
  1473  0EDF  2EEB               	goto	l192
  1474                           
  1475                           ;mainbrew1double.c: 427: {
  1476                           ;mainbrew1double.c: 428: password++;
  1477  0EE0  3001               	movlw	1
  1478  0EE1  07CA               	addwf	main@password,f
  1479  0EE2  1803               	skipnc
  1480  0EE3  0ACB               	incf	main@password+1,f
  1481  0EE4  3000               	movlw	0
  1482  0EE5  07CB               	addwf	main@password+1,f
  1483                           
  1484                           ;mainbrew1double.c: 429: p=1;
  1485  0EE6  01B8               	clrf	main@p
  1486  0EE7  0AB8               	incf	main@p,f
  1487  0EE8                     l193:	
  1488                           ;mainbrew1double.c: 430: while(!RB6);
  1489                           
  1490  0EE8  1B06               	btfsc	6,6	;volatile
  1491  0EE9  2FCC               	goto	l2379
  1492  0EEA  2EE8               	goto	l193
  1493  0EEB                     l192:	
  1494                           ;mainbrew1double.c: 431: break;
  1495                           
  1496                           
  1497                           ;mainbrew1double.c: 432: }
  1498                           ;mainbrew1double.c: 433: if(!RB5)
  1499  0EEB  1A86               	btfsc	6,5	;volatile
  1500  0EEC  2EDC               	goto	l2315
  1501                           
  1502                           ;mainbrew1double.c: 434: {
  1503                           ;mainbrew1double.c: 435: password--;
  1504  0EED  30FF               	movlw	255
  1505  0EEE  07CA               	addwf	main@password,f
  1506  0EEF  1803               	skipnc
  1507  0EF0  0ACB               	incf	main@password+1,f
  1508  0EF1  30FF               	movlw	255
  1509  0EF2  07CB               	addwf	main@password+1,f
  1510                           
  1511                           ;mainbrew1double.c: 436: p=1;
  1512  0EF3  01B8               	clrf	main@p
  1513  0EF4  0AB8               	incf	main@p,f
  1514  0EF5                     l198:	
  1515                           ;mainbrew1double.c: 437: while(!RB5);
  1516                           
  1517  0EF5  1A86               	btfsc	6,5	;volatile
  1518  0EF6  2FCC               	goto	l2379
  1519  0EF7  2EF5               	goto	l198
  1520  0EF8                     l2325:	
  1521                           ;mainbrew1double.c: 439: }
  1522                           ;mainbrew1double.c: 440: }
  1523                           ;mainbrew1double.c: 441: while(p)
  1524                           
  1525                           ;mainbrew1double.c: 438: break;
  1526                           
  1527                           
  1528                           ;mainbrew1double.c: 442: {
  1529                           ;mainbrew1double.c: 443: Lcd_Set_Cursor(2,7);
  1530  0EF8  3007               	movlw	7
  1531  0EF9  00A5               	movwf	??_main
  1532  0EFA  0825               	movf	??_main,w
  1533  0EFB  00F4               	movwf	Lcd_Set_Cursor@b
  1534  0EFC  3002               	movlw	2
  1535  0EFD  120A  158A  23EB  120A  158A  	fcall	_Lcd_Set_Cursor
  1536                           
  1537                           ;mainbrew1double.c: 444: lcddisplay(password);
  1538  0F02  1283               	bcf	3,5	;RP0=0, select bank0
  1539  0F03  1303               	bcf	3,6	;RP1=0, select bank0
  1540  0F04  084B               	movf	main@password+1,w
  1541  0F05  00F9               	movwf	lcddisplay@num+1
  1542  0F06  084A               	movf	main@password,w
  1543  0F07  00F8               	movwf	lcddisplay@num
  1544  0F08  120A  118A  2003  120A  158A  	fcall	_lcddisplay
  1545                           
  1546                           ;mainbrew1double.c: 445: if(RB6 == 0)
  1547  0F0D  1283               	bcf	3,5	;RP0=0, select bank0
  1548  0F0E  1303               	bcf	3,6	;RP1=0, select bank0
  1549  0F0F  1B06               	btfsc	6,6	;volatile
  1550  0F10  2F2A               	goto	l204
  1551                           
  1552                           ;mainbrew1double.c: 446: {
  1553                           ;mainbrew1double.c: 447: if(password == 50)
  1554  0F11  3032               	movlw	50
  1555  0F12  064A               	xorwf	main@password,w
  1556  0F13  044B               	iorwf	main@password+1,w
  1557  0F14  1D03               	btfss	3,2
  1558  0F15  2F18               	goto	l2333
  1559                           
  1560                           ;mainbrew1double.c: 448: {
  1561                           ;mainbrew1double.c: 449: password = 0;
  1562  0F16  01CA               	clrf	main@password
  1563  0F17  01CB               	clrf	main@password+1
  1564  0F18                     l2333:	
  1565                           
  1566                           ;mainbrew1double.c: 450: }
  1567                           ;mainbrew1double.c: 452: password++;
  1568  0F18  3001               	movlw	1
  1569  0F19  07CA               	addwf	main@password,f
  1570  0F1A  1803               	skipnc
  1571  0F1B  0ACB               	incf	main@password+1,f
  1572  0F1C  3000               	movlw	0
  1573  0F1D  07CB               	addwf	main@password+1,f
  1574                           
  1575                           ;mainbrew1double.c: 453: _delay((unsigned long)((150)*(4000000/4000.0)));
  1576  0F1E  30C3               	movlw	195
  1577  0F1F  1283               	bcf	3,5	;RP0=0, select bank0
  1578  0F20  1303               	bcf	3,6	;RP1=0, select bank0
  1579  0F21  00A6               	movwf	??_main+1
  1580  0F22  30CC               	movlw	204
  1581  0F23  00A5               	movwf	??_main
  1582  0F24                     u3307:	
  1583  0F24  0BA5               	decfsz	??_main,f
  1584  0F25  2F24               	goto	u3307
  1585  0F26  0BA6               	decfsz	??_main+1,f
  1586  0F27  2F24               	goto	u3307
  1587  0F28  0000               	nop
  1588                           
  1589                           ;mainbrew1double.c: 455: }
  1590  0F29  2F45               	goto	l2341
  1591  0F2A                     l204:	
  1592                           
  1593                           ;mainbrew1double.c: 456: else if(RB5==0)
  1594  0F2A  1A86               	btfsc	6,5	;volatile
  1595  0F2B  2F45               	goto	l2341
  1596                           
  1597                           ;mainbrew1double.c: 457: {
  1598                           ;mainbrew1double.c: 458: if(password == 1)
  1599  0F2C  034A               	decf	main@password,w
  1600  0F2D  044B               	iorwf	main@password+1,w
  1601  0F2E  1D03               	btfss	3,2
  1602  0F2F  2F34               	goto	l208
  1603                           
  1604                           ;mainbrew1double.c: 459: {
  1605                           ;mainbrew1double.c: 460: password = 50;
  1606  0F30  3032               	movlw	50
  1607  0F31  00CA               	movwf	main@password
  1608  0F32  3000               	movlw	0
  1609  0F33  00CB               	movwf	main@password+1
  1610  0F34                     l208:	
  1611                           
  1612                           ;mainbrew1double.c: 461: }
  1613                           ;mainbrew1double.c: 463: password--;
  1614  0F34  30FF               	movlw	255
  1615  0F35  07CA               	addwf	main@password,f
  1616  0F36  1803               	skipnc
  1617  0F37  0ACB               	incf	main@password+1,f
  1618  0F38  30FF               	movlw	255
  1619  0F39  07CB               	addwf	main@password+1,f
  1620                           
  1621                           ;mainbrew1double.c: 464: _delay((unsigned long)((150)*(4000000/4000.0)));
  1622  0F3A  30C3               	movlw	195
  1623  0F3B  1283               	bcf	3,5	;RP0=0, select bank0
  1624  0F3C  1303               	bcf	3,6	;RP1=0, select bank0
  1625  0F3D  00A6               	movwf	??_main+1
  1626  0F3E  30CC               	movlw	204
  1627  0F3F  00A5               	movwf	??_main
  1628  0F40                     u3317:	
  1629  0F40  0BA5               	decfsz	??_main,f
  1630  0F41  2F40               	goto	u3317
  1631  0F42  0BA6               	decfsz	??_main+1,f
  1632  0F43  2F40               	goto	u3317
  1633  0F44  0000               	nop
  1634  0F45                     l2341:	
  1635                           
  1636                           ;mainbrew1double.c: 466: }
  1637                           ;mainbrew1double.c: 468: if(!RB4)
  1638  0F45  1283               	bcf	3,5	;RP0=0, select bank0
  1639  0F46  1303               	bcf	3,6	;RP1=0, select bank0
  1640  0F47  1A06               	btfsc	6,4	;volatile
  1641  0F48  2FCC               	goto	l2379
  1642                           
  1643                           ;mainbrew1double.c: 469: {
  1644                           ;mainbrew1double.c: 470: if(password == 2)
  1645  0F49  3002               	movlw	2
  1646  0F4A  064A               	xorwf	main@password,w
  1647  0F4B  044B               	iorwf	main@password+1,w
  1648  0F4C  1D03               	btfss	3,2
  1649  0F4D  2F58               	goto	l2355
  1650                           
  1651                           ;mainbrew1double.c: 471: {
  1652                           ;mainbrew1double.c: 472: prg = 0;
  1653  0F4E  01AA               	clrf	main@prg
  1654  0F4F  01AB               	clrf	main@prg+1
  1655                           
  1656                           ;mainbrew1double.c: 473: open = 1;
  1657  0F50  3001               	movlw	1
  1658  0F51  00AC               	movwf	main@open
  1659  0F52  3000               	movlw	0
  1660  0F53  00AD               	movwf	main@open+1
  1661                           
  1662                           ;mainbrew1double.c: 474: password = 0;
  1663  0F54  01CA               	clrf	main@password
  1664  0F55  01CB               	clrf	main@password+1
  1665                           
  1666                           ;mainbrew1double.c: 475: wrong = 0;
  1667  0F56  01C4               	clrf	main@wrong
  1668                           
  1669                           ;mainbrew1double.c: 476: break;
  1670  0F57  2FCF               	goto	l2381
  1671  0F58                     l2355:	
  1672                           ;mainbrew1double.c: 477: }
  1673                           
  1674                           
  1675                           ;mainbrew1double.c: 478: else
  1676                           ;mainbrew1double.c: 479: {
  1677                           ;mainbrew1double.c: 480: Lcd_Clear();
  1678  0F58  120A  158A  2166  120A  158A  	fcall	_Lcd_Clear
  1679                           
  1680                           ;mainbrew1double.c: 481: Lcd_Set_Cursor(1,1);
  1681  0F5D  01F4               	clrf	Lcd_Set_Cursor@b
  1682  0F5E  0AF4               	incf	Lcd_Set_Cursor@b,f
  1683  0F5F  3001               	movlw	1
  1684  0F60  120A  158A  23EB  120A  158A  	fcall	_Lcd_Set_Cursor
  1685                           
  1686                           ;mainbrew1double.c: 482: Lcd_Write_String("wrong password");
  1687  0F65  30B8               	movlw	low (STR_7| (0+32768))
  1688  0F66  00F5               	movwf	Lcd_Write_String@a
  1689  0F67  3090               	movlw	high (STR_7| (0+32768))
  1690  0F68  00F6               	movwf	Lcd_Write_String@a+1
  1691  0F69  120A  158A  2371  120A  158A  	fcall	_Lcd_Write_String
  1692                           
  1693                           ;mainbrew1double.c: 483: wrong++;
  1694  0F6E  3001               	movlw	1
  1695  0F6F  1283               	bcf	3,5	;RP0=0, select bank0
  1696  0F70  1303               	bcf	3,6	;RP1=0, select bank0
  1697  0F71  00A5               	movwf	??_main
  1698  0F72  0825               	movf	??_main,w
  1699  0F73  07C4               	addwf	main@wrong,f
  1700                           
  1701                           ;mainbrew1double.c: 484: if(wrong<3)
  1702  0F74  3003               	movlw	3
  1703  0F75  0244               	subwf	main@wrong,w
  1704  0F76  1803               	skipnc
  1705  0F77  2FC9               	goto	l2377
  1706                           
  1707                           ;mainbrew1double.c: 485: {
  1708                           ;mainbrew1double.c: 486: RA7 = 1;
  1709  0F78  1785               	bsf	5,7	;volatile
  1710                           
  1711                           ;mainbrew1double.c: 487: _delay((unsigned long)((200)*(4000000/4000.0)));
  1712  0F79  3002               	movlw	2
  1713  0F7A  1283               	bcf	3,5	;RP0=0, select bank0
  1714  0F7B  1303               	bcf	3,6	;RP1=0, select bank0
  1715  0F7C  00A7               	movwf	??_main+2
  1716  0F7D  3004               	movlw	4
  1717  0F7E  00A6               	movwf	??_main+1
  1718  0F7F  30B9               	movlw	185
  1719  0F80  00A5               	movwf	??_main
  1720  0F81                     u3327:	
  1721  0F81  0BA5               	decfsz	??_main,f
  1722  0F82  2F81               	goto	u3327
  1723  0F83  0BA6               	decfsz	??_main+1,f
  1724  0F84  2F81               	goto	u3327
  1725  0F85  0BA7               	decfsz	??_main+2,f
  1726  0F86  2F81               	goto	u3327
  1727  0F87  2F88               	nop2
  1728                           
  1729                           ;mainbrew1double.c: 488: RA7 = 0;
  1730  0F88  1283               	bcf	3,5	;RP0=0, select bank0
  1731  0F89  1303               	bcf	3,6	;RP1=0, select bank0
  1732  0F8A  1385               	bcf	5,7	;volatile
  1733                           
  1734                           ;mainbrew1double.c: 489: _delay((unsigned long)((100)*(4000000/4000.0)));
  1735  0F8B  3082               	movlw	130
  1736  0F8C  1283               	bcf	3,5	;RP0=0, select bank0
  1737  0F8D  1303               	bcf	3,6	;RP1=0, select bank0
  1738  0F8E  00A6               	movwf	??_main+1
  1739  0F8F  30DD               	movlw	221
  1740  0F90  00A5               	movwf	??_main
  1741  0F91                     u3337:	
  1742  0F91  0BA5               	decfsz	??_main,f
  1743  0F92  2F91               	goto	u3337
  1744  0F93  0BA6               	decfsz	??_main+1,f
  1745  0F94  2F91               	goto	u3337
  1746                           
  1747                           ;mainbrew1double.c: 490: RA7 = 1;
  1748  0F95  1283               	bcf	3,5	;RP0=0, select bank0
  1749  0F96  1303               	bcf	3,6	;RP1=0, select bank0
  1750  0F97  1785               	bsf	5,7	;volatile
  1751                           
  1752                           ;mainbrew1double.c: 491: _delay((unsigned long)((200)*(4000000/4000.0)));
  1753  0F98  3002               	movlw	2
  1754  0F99  1283               	bcf	3,5	;RP0=0, select bank0
  1755  0F9A  1303               	bcf	3,6	;RP1=0, select bank0
  1756  0F9B  00A7               	movwf	??_main+2
  1757  0F9C  3004               	movlw	4
  1758  0F9D  00A6               	movwf	??_main+1
  1759  0F9E  30B9               	movlw	185
  1760  0F9F  00A5               	movwf	??_main
  1761  0FA0                     u3347:	
  1762  0FA0  0BA5               	decfsz	??_main,f
  1763  0FA1  2FA0               	goto	u3347
  1764  0FA2  0BA6               	decfsz	??_main+1,f
  1765  0FA3  2FA0               	goto	u3347
  1766  0FA4  0BA7               	decfsz	??_main+2,f
  1767  0FA5  2FA0               	goto	u3347
  1768  0FA6  2FA7               	nop2
  1769                           
  1770                           ;mainbrew1double.c: 492: RA7 = 0;
  1771  0FA7  1283               	bcf	3,5	;RP0=0, select bank0
  1772  0FA8  1303               	bcf	3,6	;RP1=0, select bank0
  1773  0FA9  1385               	bcf	5,7	;volatile
  1774                           
  1775                           ;mainbrew1double.c: 493: _delay((unsigned long)((100)*(4000000/4000.0)));
  1776  0FAA  3082               	movlw	130
  1777  0FAB  1283               	bcf	3,5	;RP0=0, select bank0
  1778  0FAC  1303               	bcf	3,6	;RP1=0, select bank0
  1779  0FAD  00A6               	movwf	??_main+1
  1780  0FAE  30DD               	movlw	221
  1781  0FAF  00A5               	movwf	??_main
  1782  0FB0                     u3357:	
  1783  0FB0  0BA5               	decfsz	??_main,f
  1784  0FB1  2FB0               	goto	u3357
  1785  0FB2  0BA6               	decfsz	??_main+1,f
  1786  0FB3  2FB0               	goto	u3357
  1787                           
  1788                           ;mainbrew1double.c: 494: RA7 = 1;
  1789  0FB4  1283               	bcf	3,5	;RP0=0, select bank0
  1790  0FB5  1303               	bcf	3,6	;RP1=0, select bank0
  1791  0FB6  1785               	bsf	5,7	;volatile
  1792                           
  1793                           ;mainbrew1double.c: 495: _delay((unsigned long)((200)*(4000000/4000.0)));
  1794  0FB7  3002               	movlw	2
  1795  0FB8  1283               	bcf	3,5	;RP0=0, select bank0
  1796  0FB9  1303               	bcf	3,6	;RP1=0, select bank0
  1797  0FBA  00A7               	movwf	??_main+2
  1798  0FBB  3004               	movlw	4
  1799  0FBC  00A6               	movwf	??_main+1
  1800  0FBD  30B9               	movlw	185
  1801  0FBE  00A5               	movwf	??_main
  1802  0FBF                     u3367:	
  1803  0FBF  0BA5               	decfsz	??_main,f
  1804  0FC0  2FBF               	goto	u3367
  1805  0FC1  0BA6               	decfsz	??_main+1,f
  1806  0FC2  2FBF               	goto	u3367
  1807  0FC3  0BA7               	decfsz	??_main+2,f
  1808  0FC4  2FBF               	goto	u3367
  1809  0FC5  2FC6               	nop2
  1810                           
  1811                           ;mainbrew1double.c: 496: RA7 = 0;
  1812  0FC6  1283               	bcf	3,5	;RP0=0, select bank0
  1813  0FC7  1303               	bcf	3,6	;RP1=0, select bank0
  1814  0FC8  1385               	bcf	5,7	;volatile
  1815  0FC9                     l2377:	
  1816                           
  1817                           ;mainbrew1double.c: 497: }
  1818                           ;mainbrew1double.c: 498: password = 0;
  1819  0FC9  01CA               	clrf	main@password
  1820  0FCA  01CB               	clrf	main@password+1
  1821                           
  1822                           ;mainbrew1double.c: 499: goto start;
  1823  0FCB  2E96               	goto	l2299
  1824  0FCC                     l2379:	
  1825  0FCC  0838               	movf	main@p,w
  1826  0FCD  1D03               	btfss	3,2
  1827  0FCE  2EF8               	goto	l2325
  1828  0FCF                     l2381:	
  1829                           
  1830                           ;mainbrew1double.c: 500: }
  1831                           ;mainbrew1double.c: 501: }
  1832                           ;mainbrew1double.c: 502: }
  1833                           ;mainbrew1double.c: 503: Lcd_Clear();
  1834  0FCF  120A  158A  2166  120A  158A  	fcall	_Lcd_Clear
  1835                           
  1836                           ;mainbrew1double.c: 504: Lcd_Set_Cursor(1,4);
  1837  0FD4  3004               	movlw	4
  1838  0FD5  1283               	bcf	3,5	;RP0=0, select bank0
  1839  0FD6  1303               	bcf	3,6	;RP1=0, select bank0
  1840  0FD7  00A5               	movwf	??_main
  1841  0FD8  0825               	movf	??_main,w
  1842  0FD9  00F4               	movwf	Lcd_Set_Cursor@b
  1843  0FDA  3001               	movlw	1
  1844  0FDB  120A  158A  23EB  120A  158A  	fcall	_Lcd_Set_Cursor
  1845                           
  1846                           ;mainbrew1double.c: 505: Lcd_Write_String("LOGINS....");
  1847  0FE0  3025               	movlw	low (STR_8| (0+32768))
  1848  0FE1  00F5               	movwf	Lcd_Write_String@a
  1849  0FE2  3091               	movlw	high (STR_8| (0+32768))
  1850  0FE3  00F6               	movwf	Lcd_Write_String@a+1
  1851  0FE4  120A  158A  2371  120A  158A  	fcall	_Lcd_Write_String
  1852                           
  1853                           ;mainbrew1double.c: 506: _delay((unsigned long)((1000)*(4000000/4000.0)));
  1854  0FE9  3006               	movlw	6
  1855  0FEA  1283               	bcf	3,5	;RP0=0, select bank0
  1856  0FEB  1303               	bcf	3,6	;RP1=0, select bank0
  1857  0FEC  00A7               	movwf	??_main+2
  1858  0FED  3013               	movlw	19
  1859  0FEE  00A6               	movwf	??_main+1
  1860  0FEF  30AD               	movlw	173
  1861  0FF0  00A5               	movwf	??_main
  1862  0FF1                     u3377:	
  1863  0FF1  0BA5               	decfsz	??_main,f
  1864  0FF2  2FF1               	goto	u3377
  1865  0FF3  0BA6               	decfsz	??_main+1,f
  1866  0FF4  2FF1               	goto	u3377
  1867  0FF5  0BA7               	decfsz	??_main+2,f
  1868  0FF6  2FF1               	goto	u3377
  1869  0FF7                     l2387:	
  1870                           ;mainbrew1double.c: 507: initialstart:
  1871                           
  1872                           
  1873                           ;mainbrew1double.c: 508: Lcd_Clear();
  1874  0FF7  120A  158A  2166   	fcall	_Lcd_Clear
  1875  0FFA  120A  158A  2CC0   	goto	l2389
  1876  0FFD                     L9:	
  1877  0FFD                     L8:	
  1878  0FFD  120A  118A  2928   	ljmp	l2471
  1879                           
  1880                           	psect	text1
  1881  0003                     __ptext1:	
  1882 ;; *************** function _lcddisplay *****************
  1883 ;; Defined at:
  1884 ;;		line 294 in file "mainbrew1double.c"
  1885 ;; Parameters:    Size  Location     Type
  1886 ;;  num             2    8[COMMON] unsigned int 
  1887 ;; Auto vars:     Size  Location     Type
  1888 ;;		None
  1889 ;; Return value:  Size  Location     Type
  1890 ;;                  1    wreg      void 
  1891 ;; Registers used:
  1892 ;;		wreg, status,2, status,0, pclath, cstack
  1893 ;; Tracked objects:
  1894 ;;		On entry : 0/0
  1895 ;;		On exit  : 0/0
  1896 ;;		Unchanged: 0/0
  1897 ;; Data sizes:     COMMON   BANK0   BANK1   BANK3   BANK2
  1898 ;;      Params:         2       0       0       0       0
  1899 ;;      Locals:         0       0       0       0       0
  1900 ;;      Temps:          0       0       0       0       0
  1901 ;;      Totals:         2       0       0       0       0
  1902 ;;Total ram usage:        2 bytes
  1903 ;; Hardware stack levels used:    1
  1904 ;; Hardware stack levels required when called:    2
  1905 ;; This function calls:
  1906 ;;		_Lcd_Write_Char
  1907 ;;		___lwdiv
  1908 ;;		___lwmod
  1909 ;; This function is called by:
  1910 ;;		_main
  1911 ;; This function uses a non-reentrant model
  1912 ;;
  1913                           
  1914                           
  1915                           ;psect for function _lcddisplay
  1916  0003                     _lcddisplay:	
  1917                           
  1918                           ;mainbrew1double.c: 298: Lcd_Write_Char((num/10)+0x30);
  1919                           
  1920                           ;incstack = 0
  1921                           ; Regs used in _lcddisplay: [wreg+status,2+status,0+pclath+cstack]
  1922  0003  300A               	movlw	10
  1923  0004  00F0               	movwf	___lwdiv@divisor
  1924  0005  3000               	movlw	0
  1925  0006  00F1               	movwf	___lwdiv@divisor+1
  1926  0007  0879               	movf	lcddisplay@num+1,w
  1927  0008  00F3               	movwf	___lwdiv@dividend+1
  1928  0009  0878               	movf	lcddisplay@num,w
  1929  000A  00F2               	movwf	___lwdiv@dividend
  1930  000B  120A  158A  2335  120A  118A  	fcall	___lwdiv
  1931  0010  0870               	movf	?___lwdiv,w
  1932  0011  3E30               	addlw	48
  1933  0012  120A  158A  22C5  120A  118A  	fcall	_Lcd_Write_Char
  1934                           
  1935                           ;mainbrew1double.c: 300: Lcd_Write_Char((num%10)+0x30);
  1936  0017  300A               	movlw	10
  1937  0018  00F0               	movwf	___lwmod@divisor
  1938  0019  3000               	movlw	0
  1939  001A  00F1               	movwf	___lwmod@divisor+1
  1940  001B  0879               	movf	lcddisplay@num+1,w
  1941  001C  00F3               	movwf	___lwmod@dividend+1
  1942  001D  0878               	movf	lcddisplay@num,w
  1943  001E  00F2               	movwf	___lwmod@dividend
  1944  001F  120A  158A  222C  120A  118A  	fcall	___lwmod
  1945  0024  0870               	movf	?___lwmod,w
  1946  0025  3E30               	addlw	48
  1947  0026  120A  158A  22C5   	fcall	_Lcd_Write_Char
  1948  0029  0008               	return
  1949  002A                     __end_of_lcddisplay:	
  1950                           
  1951                           	psect	text2
  1952  0085                     __ptext2:	
  1953 ;; *************** function _checktemp *****************
  1954 ;; Defined at:
  1955 ;;		line 266 in file "mainbrew1double.c"
  1956 ;; Parameters:    Size  Location     Type
  1957 ;;		None
  1958 ;; Auto vars:     Size  Location     Type
  1959 ;;  temp            2   12[COMMON] unsigned int 
  1960 ;;  tempH           2   10[COMMON] unsigned short 
  1961 ;;  tempL           2    8[COMMON] unsigned short 
  1962 ;; Return value:  Size  Location     Type
  1963 ;;                  2    4[COMMON] int 
  1964 ;; Registers used:
  1965 ;;		wreg, status,2, status,0, pclath, cstack
  1966 ;; Tracked objects:
  1967 ;;		On entry : 0/0
  1968 ;;		On exit  : 0/0
  1969 ;;		Unchanged: 0/0
  1970 ;; Data sizes:     COMMON   BANK0   BANK1   BANK3   BANK2
  1971 ;;      Params:         2       0       0       0       0
  1972 ;;      Locals:         6       0       0       0       0
  1973 ;;      Temps:          2       0       0       0       0
  1974 ;;      Totals:        10       0       0       0       0
  1975 ;;Total ram usage:       10 bytes
  1976 ;; Hardware stack levels used:    1
  1977 ;; Hardware stack levels required when called:    1
  1978 ;; This function calls:
  1979 ;;		_read
  1980 ;;		_reset
  1981 ;;		_write
  1982 ;; This function is called by:
  1983 ;;		_main
  1984 ;; This function uses a non-reentrant model
  1985 ;;
  1986                           
  1987                           
  1988                           ;psect for function _checktemp
  1989  0085                     _checktemp:	
  1990                           
  1991                           ;mainbrew1double.c: 268: unsigned short tempL = 0,tempH = 0;
  1992                           
  1993                           ;incstack = 0
  1994                           ; Regs used in _checktemp: [wreg+status,2+status,0+pclath+cstack]
  1995  0085  01F8               	clrf	checktemp@tempL
  1996  0086  01F9               	clrf	checktemp@tempL+1
  1997  0087  01FA               	clrf	checktemp@tempH
  1998  0088  01FB               	clrf	checktemp@tempH+1
  1999                           
  2000                           ;mainbrew1double.c: 269: unsigned int temp = 0;
  2001  0089  01FC               	clrf	checktemp@temp
  2002  008A  01FD               	clrf	checktemp@temp+1
  2003                           
  2004                           ;mainbrew1double.c: 271: if(!reset())
  2005  008B  120A  158A  21E1  120A  118A  	fcall	_reset
  2006  0090  3A00               	xorlw	0
  2007  0091  1D03               	skipz
  2008  0092  28DD               	goto	l2173
  2009                           
  2010                           ;mainbrew1double.c: 272: {
  2011                           ;mainbrew1double.c: 273: write(0xcc);
  2012  0093  30CC               	movlw	204
  2013  0094  120A  158A  23AE  120A  118A  	fcall	_write
  2014                           
  2015                           ;mainbrew1double.c: 274: write(0x44);
  2016  0099  3044               	movlw	68
  2017  009A  120A  158A  23AE  120A  118A  	fcall	_write
  2018                           
  2019                           ;mainbrew1double.c: 275: _delay((unsigned long)((100)*(4000000/4000000.0)));
  2020  009F  3021               	movlw	33
  2021  00A0  00F6               	movwf	??_checktemp
  2022  00A1                     u3707:	
  2023  00A1  0BF6               	decfsz	??_checktemp,f
  2024  00A2  28A1               	goto	u3707
  2025                           
  2026                           ;mainbrew1double.c: 277: reset();
  2027  00A3  120A  158A  21E1  120A  118A  	fcall	_reset
  2028                           
  2029                           ;mainbrew1double.c: 278: write(0xcc);
  2030  00A8  30CC               	movlw	204
  2031  00A9  120A  158A  23AE  120A  118A  	fcall	_write
  2032                           
  2033                           ;mainbrew1double.c: 279: write(0xbe);
  2034  00AE  30BE               	movlw	190
  2035  00AF  120A  158A  23AE  120A  118A  	fcall	_write
  2036                           
  2037                           ;mainbrew1double.c: 281: tempL = read();
  2038  00B4  120A  158A  225E  120A  118A  	fcall	_read
  2039  00B9  00F6               	movwf	??_checktemp
  2040  00BA  01F7               	clrf	??_checktemp+1
  2041  00BB  0876               	movf	??_checktemp,w
  2042  00BC  00F8               	movwf	checktemp@tempL
  2043  00BD  0877               	movf	??_checktemp+1,w
  2044  00BE  00F9               	movwf	checktemp@tempL+1
  2045                           
  2046                           ;mainbrew1double.c: 282: tempH = read();
  2047  00BF  120A  158A  225E  120A  118A  	fcall	_read
  2048  00C4  00F6               	movwf	??_checktemp
  2049  00C5  01F7               	clrf	??_checktemp+1
  2050  00C6  0876               	movf	??_checktemp,w
  2051  00C7  00FA               	movwf	checktemp@tempH
  2052  00C8  0877               	movf	??_checktemp+1,w
  2053  00C9  00FB               	movwf	checktemp@tempH+1
  2054                           
  2055                           ;mainbrew1double.c: 283: temp=((tempH << 8 )| tempL);
  2056  00CA  087A               	movf	checktemp@tempH,w
  2057  00CB  00F7               	movwf	??_checktemp+1
  2058  00CC  01F6               	clrf	??_checktemp
  2059  00CD  0878               	movf	checktemp@tempL,w
  2060  00CE  0476               	iorwf	??_checktemp,w
  2061  00CF  00FC               	movwf	checktemp@temp
  2062  00D0  0879               	movf	checktemp@tempL+1,w
  2063  00D1  0477               	iorwf	??_checktemp+1,w
  2064  00D2  00FD               	movwf	checktemp@temp+1
  2065                           
  2066                           ;mainbrew1double.c: 284: temp = temp /16 ;
  2067  00D3  0E7C               	swapf	checktemp@temp,w
  2068  00D4  390F               	andlw	15
  2069  00D5  00FC               	movwf	checktemp@temp
  2070  00D6  0E7D               	swapf	checktemp@temp+1,w
  2071  00D7  39F0               	andlw	240
  2072  00D8  04FC               	iorwf	checktemp@temp,f
  2073  00D9  0E7D               	swapf	checktemp@temp+1,w
  2074  00DA  390F               	andlw	15
  2075  00DB  00FD               	movwf	checktemp@temp+1
  2076                           
  2077                           ;mainbrew1double.c: 285: }
  2078  00DC  28DF               	goto	l2175
  2079  00DD                     l2173:	
  2080                           
  2081                           ;mainbrew1double.c: 286: else
  2082                           ;mainbrew1double.c: 287: {
  2083                           ;mainbrew1double.c: 288: temp = 0;
  2084  00DD  01FC               	clrf	checktemp@temp
  2085  00DE  01FD               	clrf	checktemp@temp+1
  2086  00DF                     l2175:	
  2087                           
  2088                           ;mainbrew1double.c: 289: }
  2089                           ;mainbrew1double.c: 290: return temp;
  2090  00DF  087D               	movf	checktemp@temp+1,w
  2091  00E0  00F5               	movwf	?_checktemp+1
  2092  00E1  087C               	movf	checktemp@temp,w
  2093  00E2  00F4               	movwf	?_checktemp
  2094  00E3  0008               	return
  2095  00E4                     __end_of_checktemp:	
  2096                           
  2097                           	psect	text3
  2098  0BAE                     __ptext3:	
  2099 ;; *************** function _write *****************
  2100 ;; Defined at:
  2101 ;;		line 218 in file "mainbrew1double.c"
  2102 ;; Parameters:    Size  Location     Type
  2103 ;;  WRT             1    wreg     unsigned char 
  2104 ;; Auto vars:     Size  Location     Type
  2105 ;;  WRT             1    1[COMMON] unsigned char 
  2106 ;;  i               1    3[COMMON] unsigned char 
  2107 ;;  Cmd             1    2[COMMON] unsigned char 
  2108 ;; Return value:  Size  Location     Type
  2109 ;;                  1    wreg      void 
  2110 ;; Registers used:
  2111 ;;		wreg, status,2, status,0
  2112 ;; Tracked objects:
  2113 ;;		On entry : 0/0
  2114 ;;		On exit  : 0/0
  2115 ;;		Unchanged: 0/0
  2116 ;; Data sizes:     COMMON   BANK0   BANK1   BANK3   BANK2
  2117 ;;      Params:         0       0       0       0       0
  2118 ;;      Locals:         3       0       0       0       0
  2119 ;;      Temps:          1       0       0       0       0
  2120 ;;      Totals:         4       0       0       0       0
  2121 ;;Total ram usage:        4 bytes
  2122 ;; Hardware stack levels used:    1
  2123 ;; This function calls:
  2124 ;;		Nothing
  2125 ;; This function is called by:
  2126 ;;		_checktemp
  2127 ;; This function uses a non-reentrant model
  2128 ;;
  2129                           
  2130                           
  2131                           ;psect for function _write
  2132  0BAE                     _write:	
  2133                           
  2134                           ;incstack = 0
  2135                           ; Regs used in _write: [wreg+status,2+status,0]
  2136                           ;write@WRT stored from wreg
  2137  0BAE  00F1               	movwf	write@WRT
  2138                           
  2139                           ;mainbrew1double.c: 220: char i,Cmd;
  2140                           ;mainbrew1double.c: 221: Cmd=WRT;
  2141  0BAF  0871               	movf	write@WRT,w
  2142  0BB0  00F0               	movwf	??_write
  2143  0BB1  0870               	movf	??_write,w
  2144  0BB2  00F2               	movwf	write@Cmd
  2145                           
  2146                           ;mainbrew1double.c: 222: TRISC3 = 1;
  2147  0BB3  1683               	bsf	3,5	;RP0=1, select bank1
  2148  0BB4  1303               	bcf	3,6	;RP1=0, select bank1
  2149  0BB5  1587               	bsf	7,3	;volatile
  2150                           
  2151                           ;mainbrew1double.c: 224: for(i = 0; i < 8; i++)
  2152  0BB6  01F3               	clrf	write@i
  2153  0BB7                     L7:	
  2154  0BB7  3008               	movlw	8
  2155  0BB8  0273               	subwf	write@i,w
  2156  0BB9  1803               	btfsc	3,0
  2157  0BBA  0008               	return
  2158                           
  2159                           ;mainbrew1double.c: 225: {
  2160                           ;mainbrew1double.c: 226: if((Cmd & (1<<i))!= 0)
  2161  0BBB  3001               	movlw	1
  2162  0BBC  00F0               	movwf	??_write
  2163  0BBD  0A73               	incf	write@i,w
  2164  0BBE  2BC1               	goto	u1714
  2165  0BBF                     u1715:	
  2166  0BBF  1003               	clrc
  2167  0BC0  0DF0               	rlf	??_write,f
  2168  0BC1                     u1714:	
  2169  0BC1  3EFF               	addlw	-1
  2170  0BC2  1D03               	skipz
  2171  0BC3  2BBF               	goto	u1715
  2172  0BC4  0870               	movf	??_write,w
  2173  0BC5  0572               	andwf	write@Cmd,w
  2174  0BC6  1903               	btfsc	3,2
  2175  0BC7  2BD8               	goto	l151
  2176                           
  2177                           ;mainbrew1double.c: 227: {
  2178                           ;mainbrew1double.c: 229: TRISC3 = 0;
  2179  0BC8  1683               	bsf	3,5	;RP0=1, select bank1
  2180  0BC9  1303               	bcf	3,6	;RP1=0, select bank1
  2181  0BCA  1187               	bcf	7,3	;volatile
  2182                           
  2183                           ;mainbrew1double.c: 230: RC3= 0;
  2184  0BCB  1283               	bcf	3,5	;RP0=0, select bank0
  2185  0BCC  1303               	bcf	3,6	;RP1=0, select bank0
  2186  0BCD  1187               	bcf	7,3	;volatile
  2187                           
  2188                           ;mainbrew1double.c: 231: _delay((unsigned long)((1)*(4000000/4000000.0)));
  2189  0BCE  0000               	nop
  2190                           
  2191                           ;mainbrew1double.c: 232: TRISC3 = 1;
  2192  0BCF  1683               	bsf	3,5	;RP0=1, select bank1
  2193  0BD0  1303               	bcf	3,6	;RP1=0, select bank1
  2194  0BD1  1587               	bsf	7,3	;volatile
  2195                           
  2196                           ;mainbrew1double.c: 233: _delay((unsigned long)((60)*(4000000/4000000.0)));
  2197  0BD2  3013               	movlw	19
  2198  0BD3  00F0               	movwf	??_write
  2199  0BD4                     u3717:	
  2200  0BD4  0BF0               	decfsz	??_write,f
  2201  0BD5  2BD4               	goto	u3717
  2202  0BD6  2BD7               	nop2
  2203                           
  2204                           ;mainbrew1double.c: 234: }
  2205  0BD7  2BE6               	goto	l2005
  2206  0BD8                     l151:	
  2207                           
  2208                           ;mainbrew1double.c: 235: else
  2209                           ;mainbrew1double.c: 236: {
  2210                           ;mainbrew1double.c: 238: TRISC3 = 0;
  2211  0BD8  1683               	bsf	3,5	;RP0=1, select bank1
  2212  0BD9  1303               	bcf	3,6	;RP1=0, select bank1
  2213  0BDA  1187               	bcf	7,3	;volatile
  2214                           
  2215                           ;mainbrew1double.c: 239: RC3= 0;
  2216  0BDB  1283               	bcf	3,5	;RP0=0, select bank0
  2217  0BDC  1303               	bcf	3,6	;RP1=0, select bank0
  2218  0BDD  1187               	bcf	7,3	;volatile
  2219                           
  2220                           ;mainbrew1double.c: 240: _delay((unsigned long)((60)*(4000000/4000000.0)));
  2221  0BDE  3013               	movlw	19
  2222  0BDF  00F0               	movwf	??_write
  2223  0BE0                     u3727:	
  2224  0BE0  0BF0               	decfsz	??_write,f
  2225  0BE1  2BE0               	goto	u3727
  2226  0BE2  2BE3               	nop2
  2227                           
  2228                           ;mainbrew1double.c: 241: TRISC3 = 1;
  2229  0BE3  1683               	bsf	3,5	;RP0=1, select bank1
  2230  0BE4  1303               	bcf	3,6	;RP1=0, select bank1
  2231  0BE5  1587               	bsf	7,3	;volatile
  2232  0BE6                     l2005:	
  2233  0BE6  3001               	movlw	1
  2234  0BE7  00F0               	movwf	??_write
  2235  0BE8  0870               	movf	??_write,w
  2236  0BE9  07F3               	addwf	write@i,f
  2237  0BEA  2BB7               	goto	L7
  2238  0BEB                     __end_of_write:	
  2239                           
  2240                           	psect	text4
  2241  09E1                     __ptext4:	
  2242 ;; *************** function _reset *****************
  2243 ;; Defined at:
  2244 ;;		line 193 in file "mainbrew1double.c"
  2245 ;; Parameters:    Size  Location     Type
  2246 ;;		None
  2247 ;; Auto vars:     Size  Location     Type
  2248 ;;		None
  2249 ;; Return value:  Size  Location     Type
  2250 ;;                  1    wreg      unsigned char 
  2251 ;; Registers used:
  2252 ;;		wreg
  2253 ;; Tracked objects:
  2254 ;;		On entry : 0/0
  2255 ;;		On exit  : 0/0
  2256 ;;		Unchanged: 0/0
  2257 ;; Data sizes:     COMMON   BANK0   BANK1   BANK3   BANK2
  2258 ;;      Params:         0       0       0       0       0
  2259 ;;      Locals:         0       0       0       0       0
  2260 ;;      Temps:          1       0       0       0       0
  2261 ;;      Totals:         1       0       0       0       0
  2262 ;;Total ram usage:        1 bytes
  2263 ;; Hardware stack levels used:    1
  2264 ;; This function calls:
  2265 ;;		Nothing
  2266 ;; This function is called by:
  2267 ;;		_checktemp
  2268 ;; This function uses a non-reentrant model
  2269 ;;
  2270                           
  2271                           
  2272                           ;psect for function _reset
  2273  09E1                     _reset:	
  2274                           
  2275                           ;mainbrew1double.c: 195: TRISC3 = 0;
  2276                           
  2277                           ;incstack = 0
  2278                           ; Regs used in _reset: [wreg]
  2279  09E1  1683               	bsf	3,5	;RP0=1, select bank1
  2280  09E2  1303               	bcf	3,6	;RP1=0, select bank1
  2281  09E3  1187               	bcf	7,3	;volatile
  2282                           
  2283                           ;mainbrew1double.c: 196: RC3= 0;
  2284  09E4  1283               	bcf	3,5	;RP0=0, select bank0
  2285  09E5  1303               	bcf	3,6	;RP1=0, select bank0
  2286  09E6  1187               	bcf	7,3	;volatile
  2287                           
  2288                           ;mainbrew1double.c: 197: _delay((unsigned long)((480)*(4000000/4000000.0)));
  2289  09E7  309F               	movlw	159
  2290  09E8  00F0               	movwf	??_reset
  2291  09E9                     u3737:	
  2292  09E9  0BF0               	decfsz	??_reset,f
  2293  09EA  29E9               	goto	u3737
  2294  09EB  29EC               	nop2
  2295                           
  2296                           ;mainbrew1double.c: 198: TRISC3 = 1;
  2297  09EC  1683               	bsf	3,5	;RP0=1, select bank1
  2298  09ED  1303               	bcf	3,6	;RP1=0, select bank1
  2299  09EE  1587               	bsf	7,3	;volatile
  2300                           
  2301                           ;mainbrew1double.c: 199: _delay((unsigned long)((60)*(4000000/4000000.0)));
  2302  09EF  3013               	movlw	19
  2303  09F0  00F0               	movwf	??_reset
  2304  09F1                     u3747:	
  2305  09F1  0BF0               	decfsz	??_reset,f
  2306  09F2  29F1               	goto	u3747
  2307  09F3  29F4               	nop2
  2308                           
  2309                           ;mainbrew1double.c: 201: if (RC3== 0)
  2310  09F4  1283               	bcf	3,5	;RP0=0, select bank0
  2311  09F5  1303               	bcf	3,6	;RP1=0, select bank0
  2312  09F6  1987               	btfsc	7,3	;volatile
  2313  09F7  29FF               	goto	l1981
  2314                           
  2315                           ;mainbrew1double.c: 202: {
  2316                           ;mainbrew1double.c: 203: _delay((unsigned long)((480)*(4000000/4000000.0)));
  2317  09F8  309F               	movlw	159
  2318  09F9  00F0               	movwf	??_reset
  2319  09FA                     u3757:	
  2320  09FA  0BF0               	decfsz	??_reset,f
  2321  09FB  29FA               	goto	u3757
  2322  09FC  29FD               	nop2
  2323                           
  2324                           ;mainbrew1double.c: 205: return 0;
  2325  09FD  3000               	movlw	0
  2326                           
  2327                           ;mainbrew1double.c: 206: }
  2328  09FE  0008               	return
  2329  09FF                     l1981:	
  2330                           
  2331                           ;mainbrew1double.c: 207: else
  2332                           ;mainbrew1double.c: 208: {
  2333                           ;mainbrew1double.c: 209: _delay((unsigned long)((480)*(4000000/4000000.0)));
  2334  09FF  309F               	movlw	159
  2335  0A00  00F0               	movwf	??_reset
  2336  0A01                     u3767:	
  2337  0A01  0BF0               	decfsz	??_reset,f
  2338  0A02  2A01               	goto	u3767
  2339  0A03  2A04               	nop2
  2340                           
  2341                           ;mainbrew1double.c: 211: return 1;
  2342  0A04  3001               	movlw	1
  2343  0A05  0008               	return
  2344  0A06                     __end_of_reset:	
  2345                           
  2346                           	psect	text5
  2347  0A5E                     __ptext5:	
  2348 ;; *************** function _read *****************
  2349 ;; Defined at:
  2350 ;;		line 248 in file "mainbrew1double.c"
  2351 ;; Parameters:    Size  Location     Type
  2352 ;;		None
  2353 ;; Auto vars:     Size  Location     Type
  2354 ;;  i               1    3[COMMON] unsigned char 
  2355 ;;  result          1    2[COMMON] unsigned char 
  2356 ;; Return value:  Size  Location     Type
  2357 ;;                  1    wreg      unsigned char 
  2358 ;; Registers used:
  2359 ;;		wreg, status,2, status,0
  2360 ;; Tracked objects:
  2361 ;;		On entry : 0/0
  2362 ;;		On exit  : 0/0
  2363 ;;		Unchanged: 0/0
  2364 ;; Data sizes:     COMMON   BANK0   BANK1   BANK3   BANK2
  2365 ;;      Params:         0       0       0       0       0
  2366 ;;      Locals:         2       0       0       0       0
  2367 ;;      Temps:          2       0       0       0       0
  2368 ;;      Totals:         4       0       0       0       0
  2369 ;;Total ram usage:        4 bytes
  2370 ;; Hardware stack levels used:    1
  2371 ;; This function calls:
  2372 ;;		Nothing
  2373 ;; This function is called by:
  2374 ;;		_checktemp
  2375 ;; This function uses a non-reentrant model
  2376 ;;
  2377                           
  2378                           
  2379                           ;psect for function _read
  2380  0A5E                     _read:	
  2381                           
  2382                           ;mainbrew1double.c: 250: char i,result = 0;
  2383                           
  2384                           ;incstack = 0
  2385                           ; Regs used in _read: [wreg+status,2+status,0]
  2386  0A5E  01F2               	clrf	read@result
  2387                           
  2388                           ;mainbrew1double.c: 251: TRISC3 = 1;
  2389  0A5F  1683               	bsf	3,5	;RP0=1, select bank1
  2390  0A60  1303               	bcf	3,6	;RP1=0, select bank1
  2391  0A61  1587               	bsf	7,3	;volatile
  2392                           
  2393                           ;mainbrew1double.c: 252: for(i = 0; i < 8; i++)
  2394  0A62  01F3               	clrf	read@i
  2395  0A63  3008               	movlw	8
  2396  0A64  0273               	subwf	read@i,w
  2397  0A65  1803               	btfsc	3,0
  2398  0A66  2A8F               	goto	l2023
  2399  0A67                     l156:	
  2400                           
  2401                           ;mainbrew1double.c: 253: {
  2402                           ;mainbrew1double.c: 254: TRISC3 = 0;
  2403  0A67  1683               	bsf	3,5	;RP0=1, select bank1
  2404  0A68  1303               	bcf	3,6	;RP1=0, select bank1
  2405  0A69  1187               	bcf	7,3	;volatile
  2406                           
  2407                           ;mainbrew1double.c: 255: RC3= 0;
  2408  0A6A  1283               	bcf	3,5	;RP0=0, select bank0
  2409  0A6B  1303               	bcf	3,6	;RP1=0, select bank0
  2410  0A6C  1187               	bcf	7,3	;volatile
  2411                           
  2412                           ;mainbrew1double.c: 256: _delay((unsigned long)((2)*(4000000/4000000.0)));
  2413  0A6D  2A6E               	nop2	;2 cycle nop
  2414                           
  2415                           ;mainbrew1double.c: 257: TRISC3 = 1;
  2416  0A6E  1683               	bsf	3,5	;RP0=1, select bank1
  2417  0A6F  1303               	bcf	3,6	;RP1=0, select bank1
  2418  0A70  1587               	bsf	7,3	;volatile
  2419                           
  2420                           ;mainbrew1double.c: 258: if(RC3!= 0)
  2421  0A71  1283               	bcf	3,5	;RP0=0, select bank0
  2422  0A72  1303               	bcf	3,6	;RP1=0, select bank0
  2423  0A73  1D87               	btfss	7,3	;volatile
  2424  0A74  2A82               	goto	l2019
  2425                           
  2426                           ;mainbrew1double.c: 259: result |= 1<<i;
  2427  0A75  3001               	movlw	1
  2428  0A76  00F0               	movwf	??_read
  2429  0A77  0A73               	incf	read@i,w
  2430  0A78  2A7B               	goto	u1764
  2431  0A79                     u1765:	
  2432  0A79  1003               	clrc
  2433  0A7A  0DF0               	rlf	??_read,f
  2434  0A7B                     u1764:	
  2435  0A7B  3EFF               	addlw	-1
  2436  0A7C  1D03               	skipz
  2437  0A7D  2A79               	goto	u1765
  2438  0A7E  0870               	movf	??_read,w
  2439  0A7F  00F1               	movwf	??_read+1
  2440  0A80  0871               	movf	??_read+1,w
  2441  0A81  04F2               	iorwf	read@result,f
  2442  0A82                     l2019:	
  2443                           
  2444                           ;mainbrew1double.c: 260: _delay((unsigned long)((60)*(4000000/4000000.0)));
  2445  0A82  3013               	movlw	19
  2446  0A83  00F0               	movwf	??_read
  2447  0A84                     u3777:	
  2448  0A84  0BF0               	decfsz	??_read,f
  2449  0A85  2A84               	goto	u3777
  2450  0A86  2A87               	nop2
  2451  0A87  3001               	movlw	1
  2452  0A88  00F0               	movwf	??_read
  2453  0A89  0870               	movf	??_read,w
  2454  0A8A  07F3               	addwf	read@i,f
  2455  0A8B  3008               	movlw	8
  2456  0A8C  0273               	subwf	read@i,w
  2457  0A8D  1C03               	skipc
  2458  0A8E  2A67               	goto	l156
  2459  0A8F                     l2023:	
  2460                           
  2461                           ;mainbrew1double.c: 261: }
  2462                           ;mainbrew1double.c: 262: return result;
  2463  0A8F  0872               	movf	read@result,w
  2464  0A90  0008               	return
  2465  0A91                     __end_of_read:	
  2466                           
  2467                           	psect	text6
  2468  0C35                     __ptext6:	
  2469 ;; *************** function ___awdiv *****************
  2470 ;; Defined at:
  2471 ;;		line 6 in file "C:\Program Files\Microchip\xc8\v1.44\sources\common\awdiv.c"
  2472 ;; Parameters:    Size  Location     Type
  2473 ;;  divisor         2    0[COMMON] int 
  2474 ;;  dividend        2    2[COMMON] int 
  2475 ;; Auto vars:     Size  Location     Type
  2476 ;;  quotient        2    7[COMMON] int 
  2477 ;;  sign            1    6[COMMON] unsigned char 
  2478 ;;  counter         1    5[COMMON] unsigned char 
  2479 ;; Return value:  Size  Location     Type
  2480 ;;                  2    0[COMMON] int 
  2481 ;; Registers used:
  2482 ;;		wreg, status,2, status,0
  2483 ;; Tracked objects:
  2484 ;;		On entry : 0/0
  2485 ;;		On exit  : 0/0
  2486 ;;		Unchanged: 0/0
  2487 ;; Data sizes:     COMMON   BANK0   BANK1   BANK3   BANK2
  2488 ;;      Params:         4       0       0       0       0
  2489 ;;      Locals:         4       0       0       0       0
  2490 ;;      Temps:          1       0       0       0       0
  2491 ;;      Totals:         9       0       0       0       0
  2492 ;;Total ram usage:        9 bytes
  2493 ;; Hardware stack levels used:    1
  2494 ;; This function calls:
  2495 ;;		Nothing
  2496 ;; This function is called by:
  2497 ;;		_main
  2498 ;; This function uses a non-reentrant model
  2499 ;;
  2500                           
  2501                           
  2502                           ;psect for function ___awdiv
  2503  0C35                     ___awdiv:	
  2504                           
  2505                           ;incstack = 0
  2506                           ; Regs used in ___awdiv: [wreg+status,2+status,0]
  2507  0C35  01F6               	clrf	___awdiv@sign
  2508  0C36  1FF1               	btfss	___awdiv@divisor+1,7
  2509  0C37  2C3F               	goto	l2201
  2510  0C38  09F0               	comf	___awdiv@divisor,f
  2511  0C39  09F1               	comf	___awdiv@divisor+1,f
  2512  0C3A  0AF0               	incf	___awdiv@divisor,f
  2513  0C3B  1903               	skipnz
  2514  0C3C  0AF1               	incf	___awdiv@divisor+1,f
  2515  0C3D  01F6               	clrf	___awdiv@sign
  2516  0C3E  0AF6               	incf	___awdiv@sign,f
  2517  0C3F                     l2201:	
  2518  0C3F  1FF3               	btfss	___awdiv@dividend+1,7
  2519  0C40  2C4A               	goto	l2207
  2520  0C41  09F2               	comf	___awdiv@dividend,f
  2521  0C42  09F3               	comf	___awdiv@dividend+1,f
  2522  0C43  0AF2               	incf	___awdiv@dividend,f
  2523  0C44  1903               	skipnz
  2524  0C45  0AF3               	incf	___awdiv@dividend+1,f
  2525  0C46  3001               	movlw	1
  2526  0C47  00F4               	movwf	??___awdiv
  2527  0C48  0874               	movf	??___awdiv,w
  2528  0C49  06F6               	xorwf	___awdiv@sign,f
  2529  0C4A                     l2207:	
  2530  0C4A  01F7               	clrf	___awdiv@quotient
  2531  0C4B  01F8               	clrf	___awdiv@quotient+1
  2532  0C4C  0870               	movf	___awdiv@divisor,w
  2533  0C4D  0471               	iorwf	___awdiv@divisor+1,w
  2534  0C4E  1903               	btfsc	3,2
  2535  0C4F  2C81               	goto	l2229
  2536  0C50  01F5               	clrf	___awdiv@counter
  2537  0C51  0AF5               	incf	___awdiv@counter,f
  2538  0C52                     l2217:	
  2539  0C52  1BF1               	btfsc	___awdiv@divisor+1,7
  2540  0C53  2C60               	goto	l2219
  2541  0C54  3001               	movlw	1
  2542  0C55                     u2105:	
  2543  0C55  1003               	clrc
  2544  0C56  0DF0               	rlf	___awdiv@divisor,f
  2545  0C57  0DF1               	rlf	___awdiv@divisor+1,f
  2546  0C58  3EFF               	addlw	-1
  2547  0C59  1D03               	skipz
  2548  0C5A  2C55               	goto	u2105
  2549  0C5B  3001               	movlw	1
  2550  0C5C  00F4               	movwf	??___awdiv
  2551  0C5D  0874               	movf	??___awdiv,w
  2552  0C5E  07F5               	addwf	___awdiv@counter,f
  2553  0C5F  2C52               	goto	l2217
  2554  0C60                     l2219:	
  2555  0C60  3001               	movlw	1
  2556  0C61                     u2125:	
  2557  0C61  1003               	clrc
  2558  0C62  0DF7               	rlf	___awdiv@quotient,f
  2559  0C63  0DF8               	rlf	___awdiv@quotient+1,f
  2560  0C64  3EFF               	addlw	-1
  2561  0C65  1D03               	skipz
  2562  0C66  2C61               	goto	u2125
  2563  0C67  0871               	movf	___awdiv@divisor+1,w
  2564  0C68  0273               	subwf	___awdiv@dividend+1,w
  2565  0C69  1D03               	skipz
  2566  0C6A  2C6D               	goto	u2135
  2567  0C6B  0870               	movf	___awdiv@divisor,w
  2568  0C6C  0272               	subwf	___awdiv@dividend,w
  2569  0C6D                     u2135:	
  2570  0C6D  1C03               	skipc
  2571  0C6E  2C76               	goto	l2225
  2572  0C6F  0870               	movf	___awdiv@divisor,w
  2573  0C70  02F2               	subwf	___awdiv@dividend,f
  2574  0C71  0871               	movf	___awdiv@divisor+1,w
  2575  0C72  1C03               	skipc
  2576  0C73  03F3               	decf	___awdiv@dividend+1,f
  2577  0C74  02F3               	subwf	___awdiv@dividend+1,f
  2578  0C75  1477               	bsf	___awdiv@quotient,0
  2579  0C76                     l2225:	
  2580  0C76  3001               	movlw	1
  2581  0C77                     u2145:	
  2582  0C77  1003               	clrc
  2583  0C78  0CF1               	rrf	___awdiv@divisor+1,f
  2584  0C79  0CF0               	rrf	___awdiv@divisor,f
  2585  0C7A  3EFF               	addlw	-1
  2586  0C7B  1D03               	skipz
  2587  0C7C  2C77               	goto	u2145
  2588  0C7D  3001               	movlw	1
  2589  0C7E  02F5               	subwf	___awdiv@counter,f
  2590  0C7F  1D03               	btfss	3,2
  2591  0C80  2C60               	goto	l2219
  2592  0C81                     l2229:	
  2593  0C81  0876               	movf	___awdiv@sign,w
  2594  0C82  1903               	btfsc	3,2
  2595  0C83  2C89               	goto	l2233
  2596  0C84  09F7               	comf	___awdiv@quotient,f
  2597  0C85  09F8               	comf	___awdiv@quotient+1,f
  2598  0C86  0AF7               	incf	___awdiv@quotient,f
  2599  0C87  1903               	skipnz
  2600  0C88  0AF8               	incf	___awdiv@quotient+1,f
  2601  0C89                     l2233:	
  2602  0C89  0878               	movf	___awdiv@quotient+1,w
  2603  0C8A  00F1               	movwf	?___awdiv+1
  2604  0C8B  0877               	movf	___awdiv@quotient,w
  2605  0C8C  00F0               	movwf	?___awdiv
  2606  0C8D  0008               	return
  2607  0C8E                     __end_of___awdiv:	
  2608                           
  2609                           	psect	text7
  2610  0A91                     __ptext7:	
  2611 ;; *************** function _Write_EEPROM *****************
  2612 ;; Defined at:
  2613 ;;		line 321 in file "mainbrew1double.c"
  2614 ;; Parameters:    Size  Location     Type
  2615 ;;  a1              1    wreg     unsigned char 
  2616 ;;  a2              1   11[COMMON] unsigned char 
  2617 ;;  data_value      2   12[COMMON] unsigned int 
  2618 ;; Auto vars:     Size  Location     Type
  2619 ;;  a1              1    1[BANK0 ] unsigned char 
  2620 ;; Return value:  Size  Location     Type
  2621 ;;                  1    wreg      void 
  2622 ;; Registers used:
  2623 ;;		wreg, status,2, status,0, pclath, cstack
  2624 ;; Tracked objects:
  2625 ;;		On entry : 0/0
  2626 ;;		On exit  : 0/0
  2627 ;;		Unchanged: 0/0
  2628 ;; Data sizes:     COMMON   BANK0   BANK1   BANK3   BANK2
  2629 ;;      Params:         3       0       0       0       0
  2630 ;;      Locals:         0       1       0       0       0
  2631 ;;      Temps:          0       1       0       0       0
  2632 ;;      Totals:         3       2       0       0       0
  2633 ;;Total ram usage:        5 bytes
  2634 ;; Hardware stack levels used:    1
  2635 ;; Hardware stack levels required when called:    1
  2636 ;; This function calls:
  2637 ;;		___lwdiv
  2638 ;;		___lwmod
  2639 ;;		_eeprom_write
  2640 ;; This function is called by:
  2641 ;;		_main
  2642 ;; This function uses a non-reentrant model
  2643 ;;
  2644                           
  2645                           
  2646                           ;psect for function _Write_EEPROM
  2647  0A91                     _Write_EEPROM:	
  2648                           
  2649                           ;incstack = 0
  2650                           ; Regs used in _Write_EEPROM: [wreg+status,2+status,0+pclath+cstack]
  2651                           ;Write_EEPROM@a1 stored from wreg
  2652  0A91  1283               	bcf	3,5	;RP0=0, select bank0
  2653  0A92  1303               	bcf	3,6	;RP1=0, select bank0
  2654  0A93  00A1               	movwf	Write_EEPROM@a1
  2655                           
  2656                           ;mainbrew1double.c: 323: eeprom_write(a1,(data_value/10));
  2657  0A94  300A               	movlw	10
  2658  0A95  00F0               	movwf	___lwdiv@divisor
  2659  0A96  3000               	movlw	0
  2660  0A97  00F1               	movwf	___lwdiv@divisor+1
  2661  0A98  087D               	movf	Write_EEPROM@data_value+1,w
  2662  0A99  00F3               	movwf	___lwdiv@dividend+1
  2663  0A9A  087C               	movf	Write_EEPROM@data_value,w
  2664  0A9B  00F2               	movwf	___lwdiv@dividend
  2665  0A9C  120A  158A  2335  120A  158A  	fcall	___lwdiv
  2666  0AA1  0870               	movf	?___lwdiv,w
  2667  0AA2  1283               	bcf	3,5	;RP0=0, select bank0
  2668  0AA3  1303               	bcf	3,6	;RP1=0, select bank0
  2669  0AA4  00A0               	movwf	??_Write_EEPROM
  2670  0AA5  0820               	movf	??_Write_EEPROM,w
  2671  0AA6  00F8               	movwf	eeprom_write@value
  2672  0AA7  0821               	movf	Write_EEPROM@a1,w
  2673  0AA8  120A  158A  2206  120A  158A  	fcall	_eeprom_write
  2674                           
  2675                           ;mainbrew1double.c: 324: eeprom_write(a2,(data_value%10));
  2676  0AAD  300A               	movlw	10
  2677  0AAE  00F0               	movwf	___lwmod@divisor
  2678  0AAF  3000               	movlw	0
  2679  0AB0  00F1               	movwf	___lwmod@divisor+1
  2680  0AB1  087D               	movf	Write_EEPROM@data_value+1,w
  2681  0AB2  00F3               	movwf	___lwmod@dividend+1
  2682  0AB3  087C               	movf	Write_EEPROM@data_value,w
  2683  0AB4  00F2               	movwf	___lwmod@dividend
  2684  0AB5  120A  158A  222C  120A  158A  	fcall	___lwmod
  2685  0ABA  0870               	movf	?___lwmod,w
  2686  0ABB  1283               	bcf	3,5	;RP0=0, select bank0
  2687  0ABC  1303               	bcf	3,6	;RP1=0, select bank0
  2688  0ABD  00A0               	movwf	??_Write_EEPROM
  2689  0ABE  0820               	movf	??_Write_EEPROM,w
  2690  0ABF  00F8               	movwf	eeprom_write@value
  2691  0AC0  087B               	movf	Write_EEPROM@a2,w
  2692  0AC1  120A  158A  2206   	fcall	_eeprom_write
  2693  0AC4  0008               	return
  2694  0AC5                     __end_of_Write_EEPROM:	
  2695                           
  2696                           	psect	text8
  2697  0A06                     __ptext8:	
  2698 ;; *************** function _eeprom_write *****************
  2699 ;; Defined at:
  2700 ;;		line 6 in file "C:\Program Files\Microchip\xc8\v1.44\sources\pic\eewrite.c"
  2701 ;; Parameters:    Size  Location     Type
  2702 ;;  addr            1    wreg     unsigned char 
  2703 ;;  value           1    8[COMMON] unsigned char 
  2704 ;; Auto vars:     Size  Location     Type
  2705 ;;  addr            1   10[COMMON] unsigned char 
  2706 ;; Return value:  Size  Location     Type
  2707 ;;                  1    wreg      void 
  2708 ;; Registers used:
  2709 ;;		wreg, status,2, status,0
  2710 ;; Tracked objects:
  2711 ;;		On entry : 0/0
  2712 ;;		On exit  : 0/0
  2713 ;;		Unchanged: 0/0
  2714 ;; Data sizes:     COMMON   BANK0   BANK1   BANK3   BANK2
  2715 ;;      Params:         1       0       0       0       0
  2716 ;;      Locals:         1       0       0       0       0
  2717 ;;      Temps:          1       0       0       0       0
  2718 ;;      Totals:         3       0       0       0       0
  2719 ;;Total ram usage:        3 bytes
  2720 ;; Hardware stack levels used:    1
  2721 ;; This function calls:
  2722 ;;		Nothing
  2723 ;; This function is called by:
  2724 ;;		_Write_EEPROM
  2725 ;; This function uses a non-reentrant model
  2726 ;;
  2727                           
  2728                           
  2729                           ;psect for function _eeprom_write
  2730  0A06                     _eeprom_write:	
  2731                           
  2732                           ;incstack = 0
  2733                           ; Regs used in _eeprom_write: [wreg+status,2+status,0]
  2734                           ;eeprom_write@addr stored from wreg
  2735  0A06  00FA               	movwf	eeprom_write@addr
  2736  0A07                     l399:	
  2737  0A07  1683               	bsf	3,5	;RP0=1, select bank3
  2738  0A08  1703               	bsf	3,6	;RP1=1, select bank3
  2739  0A09  188C               	btfsc	12,1	;volsfr
  2740  0A0A  2A07               	goto	l399
  2741  0A0B  087A               	movf	eeprom_write@addr,w
  2742  0A0C  1283               	bcf	3,5	;RP0=0, select bank2
  2743  0A0D  1703               	bsf	3,6	;RP1=1, select bank2
  2744  0A0E  008D               	movwf	13	;volatile
  2745  0A0F  0878               	movf	eeprom_write@value,w
  2746  0A10  008C               	movwf	12	;volatile
  2747  0A11  303F               	movlw	63
  2748  0A12  00F9               	movwf	??_eeprom_write
  2749  0A13  0879               	movf	??_eeprom_write,w
  2750  0A14  1683               	bsf	3,5	;RP0=1, select bank3
  2751  0A15  1703               	bsf	3,6	;RP1=1, select bank3
  2752  0A16  058C               	andwf	12,f	;volsfr
  2753  0A17  1283               	bcf	3,5	;RP0=0, select bank0
  2754  0A18  1303               	bcf	3,6	;RP1=0, select bank0
  2755  0A19  1003               	bcf	3,0	;volatile
  2756  0A1A  1B8B               	btfsc	11,7	;volatile
  2757  0A1B  1403               	bsf	3,0	;volatile
  2758  0A1C  138B               	bcf	11,7	;volatile
  2759  0A1D  1683               	bsf	3,5	;RP0=1, select bank3
  2760  0A1E  1703               	bsf	3,6	;RP1=1, select bank3
  2761  0A1F  150C               	bsf	12,2	;volsfr
  2762  0A20  3055               	movlw	85
  2763  0A21  008D               	movwf	13	;volsfr
  2764  0A22  30AA               	movlw	170
  2765  0A23  008D               	movwf	13	;volsfr
  2766  0A24  148C               	bsf	12,1	;volsfr
  2767  0A25  110C               	bcf	12,2	;volsfr
  2768  0A26  1283               	bcf	3,5	;RP0=0, select bank0
  2769  0A27  1303               	bcf	3,6	;RP1=0, select bank0
  2770  0A28  1C03               	btfss	3,0	;volatile
  2771  0A29  0008               	return
  2772  0A2A  178B               	bsf	11,7	;volatile
  2773  0A2B  0008               	return
  2774  0A2C                     __end_of_eeprom_write:	
  2775                           
  2776                           	psect	text9
  2777  0A2C                     __ptext9:	
  2778 ;; *************** function ___lwmod *****************
  2779 ;; Defined at:
  2780 ;;		line 6 in file "C:\Program Files\Microchip\xc8\v1.44\sources\common\lwmod.c"
  2781 ;; Parameters:    Size  Location     Type
  2782 ;;  divisor         2    0[COMMON] unsigned int 
  2783 ;;  dividend        2    2[COMMON] unsigned int 
  2784 ;; Auto vars:     Size  Location     Type
  2785 ;;  counter         1    5[COMMON] unsigned char 
  2786 ;; Return value:  Size  Location     Type
  2787 ;;                  2    0[COMMON] unsigned int 
  2788 ;; Registers used:
  2789 ;;		wreg, status,2, status,0
  2790 ;; Tracked objects:
  2791 ;;		On entry : 0/0
  2792 ;;		On exit  : 0/0
  2793 ;;		Unchanged: 0/0
  2794 ;; Data sizes:     COMMON   BANK0   BANK1   BANK3   BANK2
  2795 ;;      Params:         4       0       0       0       0
  2796 ;;      Locals:         1       0       0       0       0
  2797 ;;      Temps:          1       0       0       0       0
  2798 ;;      Totals:         6       0       0       0       0
  2799 ;;Total ram usage:        6 bytes
  2800 ;; Hardware stack levels used:    1
  2801 ;; This function calls:
  2802 ;;		Nothing
  2803 ;; This function is called by:
  2804 ;;		_lcddisplay
  2805 ;;		_Write_EEPROM
  2806 ;; This function uses a non-reentrant model
  2807 ;;
  2808                           
  2809                           
  2810                           ;psect for function ___lwmod
  2811  0A2C                     ___lwmod:	
  2812                           
  2813                           ;incstack = 0
  2814                           ; Regs used in ___lwmod: [wreg+status,2+status,0]
  2815  0A2C  0870               	movf	___lwmod@divisor,w
  2816  0A2D  0471               	iorwf	___lwmod@divisor+1,w
  2817  0A2E  1903               	btfsc	3,2
  2818  0A2F  2A59               	goto	l2109
  2819  0A30  01F5               	clrf	___lwmod@counter
  2820  0A31  0AF5               	incf	___lwmod@counter,f
  2821  0A32                     l2099:	
  2822  0A32  1BF1               	btfsc	___lwmod@divisor+1,7
  2823  0A33  2A40               	goto	l2101
  2824  0A34  3001               	movlw	1
  2825  0A35                     u1945:	
  2826  0A35  1003               	clrc
  2827  0A36  0DF0               	rlf	___lwmod@divisor,f
  2828  0A37  0DF1               	rlf	___lwmod@divisor+1,f
  2829  0A38  3EFF               	addlw	-1
  2830  0A39  1D03               	skipz
  2831  0A3A  2A35               	goto	u1945
  2832  0A3B  3001               	movlw	1
  2833  0A3C  00F4               	movwf	??___lwmod
  2834  0A3D  0874               	movf	??___lwmod,w
  2835  0A3E  07F5               	addwf	___lwmod@counter,f
  2836  0A3F  2A32               	goto	l2099
  2837  0A40                     l2101:	
  2838  0A40  0871               	movf	___lwmod@divisor+1,w
  2839  0A41  0273               	subwf	___lwmod@dividend+1,w
  2840  0A42  1D03               	skipz
  2841  0A43  2A46               	goto	u1965
  2842  0A44  0870               	movf	___lwmod@divisor,w
  2843  0A45  0272               	subwf	___lwmod@dividend,w
  2844  0A46                     u1965:	
  2845  0A46  1C03               	skipc
  2846  0A47  2A4E               	goto	l2105
  2847  0A48  0870               	movf	___lwmod@divisor,w
  2848  0A49  02F2               	subwf	___lwmod@dividend,f
  2849  0A4A  0871               	movf	___lwmod@divisor+1,w
  2850  0A4B  1C03               	skipc
  2851  0A4C  03F3               	decf	___lwmod@dividend+1,f
  2852  0A4D  02F3               	subwf	___lwmod@dividend+1,f
  2853  0A4E                     l2105:	
  2854  0A4E  3001               	movlw	1
  2855  0A4F                     u1975:	
  2856  0A4F  1003               	clrc
  2857  0A50  0CF1               	rrf	___lwmod@divisor+1,f
  2858  0A51  0CF0               	rrf	___lwmod@divisor,f
  2859  0A52  3EFF               	addlw	-1
  2860  0A53  1D03               	skipz
  2861  0A54  2A4F               	goto	u1975
  2862  0A55  3001               	movlw	1
  2863  0A56  02F5               	subwf	___lwmod@counter,f
  2864  0A57  1D03               	btfss	3,2
  2865  0A58  2A40               	goto	l2101
  2866  0A59                     l2109:	
  2867  0A59  0873               	movf	___lwmod@dividend+1,w
  2868  0A5A  00F1               	movwf	?___lwmod+1
  2869  0A5B  0872               	movf	___lwmod@dividend,w
  2870  0A5C  00F0               	movwf	?___lwmod
  2871  0A5D  0008               	return
  2872  0A5E                     __end_of___lwmod:	
  2873                           
  2874                           	psect	text10
  2875  0B35                     __ptext10:	
  2876 ;; *************** function ___lwdiv *****************
  2877 ;; Defined at:
  2878 ;;		line 6 in file "C:\Program Files\Microchip\xc8\v1.44\sources\common\lwdiv.c"
  2879 ;; Parameters:    Size  Location     Type
  2880 ;;  divisor         2    0[COMMON] unsigned int 
  2881 ;;  dividend        2    2[COMMON] unsigned int 
  2882 ;; Auto vars:     Size  Location     Type
  2883 ;;  quotient        2    5[COMMON] unsigned int 
  2884 ;;  counter         1    7[COMMON] unsigned char 
  2885 ;; Return value:  Size  Location     Type
  2886 ;;                  2    0[COMMON] unsigned int 
  2887 ;; Registers used:
  2888 ;;		wreg, status,2, status,0
  2889 ;; Tracked objects:
  2890 ;;		On entry : 0/0
  2891 ;;		On exit  : 0/0
  2892 ;;		Unchanged: 0/0
  2893 ;; Data sizes:     COMMON   BANK0   BANK1   BANK3   BANK2
  2894 ;;      Params:         4       0       0       0       0
  2895 ;;      Locals:         3       0       0       0       0
  2896 ;;      Temps:          1       0       0       0       0
  2897 ;;      Totals:         8       0       0       0       0
  2898 ;;Total ram usage:        8 bytes
  2899 ;; Hardware stack levels used:    1
  2900 ;; This function calls:
  2901 ;;		Nothing
  2902 ;; This function is called by:
  2903 ;;		_lcddisplay
  2904 ;;		_Write_EEPROM
  2905 ;; This function uses a non-reentrant model
  2906 ;;
  2907                           
  2908                           
  2909                           ;psect for function ___lwdiv
  2910  0B35                     ___lwdiv:	
  2911                           
  2912                           ;incstack = 0
  2913                           ; Regs used in ___lwdiv: [wreg+status,2+status,0]
  2914  0B35  01F5               	clrf	___lwdiv@quotient
  2915  0B36  01F6               	clrf	___lwdiv@quotient+1
  2916  0B37  0870               	movf	___lwdiv@divisor,w
  2917  0B38  0471               	iorwf	___lwdiv@divisor+1,w
  2918  0B39  1903               	btfsc	3,2
  2919  0B3A  2B6C               	goto	l2087
  2920  0B3B  01F7               	clrf	___lwdiv@counter
  2921  0B3C  0AF7               	incf	___lwdiv@counter,f
  2922  0B3D                     l2075:	
  2923  0B3D  1BF1               	btfsc	___lwdiv@divisor+1,7
  2924  0B3E  2B4B               	goto	l2077
  2925  0B3F  3001               	movlw	1
  2926  0B40                     u1875:	
  2927  0B40  1003               	clrc
  2928  0B41  0DF0               	rlf	___lwdiv@divisor,f
  2929  0B42  0DF1               	rlf	___lwdiv@divisor+1,f
  2930  0B43  3EFF               	addlw	-1
  2931  0B44  1D03               	skipz
  2932  0B45  2B40               	goto	u1875
  2933  0B46  3001               	movlw	1
  2934  0B47  00F4               	movwf	??___lwdiv
  2935  0B48  0874               	movf	??___lwdiv,w
  2936  0B49  07F7               	addwf	___lwdiv@counter,f
  2937  0B4A  2B3D               	goto	l2075
  2938  0B4B                     l2077:	
  2939  0B4B  3001               	movlw	1
  2940  0B4C                     u1895:	
  2941  0B4C  1003               	clrc
  2942  0B4D  0DF5               	rlf	___lwdiv@quotient,f
  2943  0B4E  0DF6               	rlf	___lwdiv@quotient+1,f
  2944  0B4F  3EFF               	addlw	-1
  2945  0B50  1D03               	skipz
  2946  0B51  2B4C               	goto	u1895
  2947  0B52  0871               	movf	___lwdiv@divisor+1,w
  2948  0B53  0273               	subwf	___lwdiv@dividend+1,w
  2949  0B54  1D03               	skipz
  2950  0B55  2B58               	goto	u1905
  2951  0B56  0870               	movf	___lwdiv@divisor,w
  2952  0B57  0272               	subwf	___lwdiv@dividend,w
  2953  0B58                     u1905:	
  2954  0B58  1C03               	skipc
  2955  0B59  2B61               	goto	l2083
  2956  0B5A  0870               	movf	___lwdiv@divisor,w
  2957  0B5B  02F2               	subwf	___lwdiv@dividend,f
  2958  0B5C  0871               	movf	___lwdiv@divisor+1,w
  2959  0B5D  1C03               	skipc
  2960  0B5E  03F3               	decf	___lwdiv@dividend+1,f
  2961  0B5F  02F3               	subwf	___lwdiv@dividend+1,f
  2962  0B60  1475               	bsf	___lwdiv@quotient,0
  2963  0B61                     l2083:	
  2964  0B61  3001               	movlw	1
  2965  0B62                     u1915:	
  2966  0B62  1003               	clrc
  2967  0B63  0CF1               	rrf	___lwdiv@divisor+1,f
  2968  0B64  0CF0               	rrf	___lwdiv@divisor,f
  2969  0B65  3EFF               	addlw	-1
  2970  0B66  1D03               	skipz
  2971  0B67  2B62               	goto	u1915
  2972  0B68  3001               	movlw	1
  2973  0B69  02F7               	subwf	___lwdiv@counter,f
  2974  0B6A  1D03               	btfss	3,2
  2975  0B6B  2B4B               	goto	l2077
  2976  0B6C                     l2087:	
  2977  0B6C  0876               	movf	___lwdiv@quotient+1,w
  2978  0B6D  00F1               	movwf	?___lwdiv+1
  2979  0B6E  0875               	movf	___lwdiv@quotient,w
  2980  0B6F  00F0               	movwf	?___lwdiv
  2981  0B70  0008               	return
  2982  0B71                     __end_of___lwdiv:	
  2983                           
  2984                           	psect	text11
  2985  0AFC                     __ptext11:	
  2986 ;; *************** function _Read_EEPROM *****************
  2987 ;; Defined at:
  2988 ;;		line 327 in file "mainbrew1double.c"
  2989 ;; Parameters:    Size  Location     Type
  2990 ;;  b1              1    wreg     unsigned char 
  2991 ;;  b2              1    6[COMMON] unsigned char 
  2992 ;; Auto vars:     Size  Location     Type
  2993 ;;  b1              1    0[BANK0 ] unsigned char 
  2994 ;;  c2              2    3[BANK0 ] unsigned int 
  2995 ;;  c1              2    1[BANK0 ] unsigned int 
  2996 ;; Return value:  Size  Location     Type
  2997 ;;                  2    6[COMMON] unsigned int 
  2998 ;; Registers used:
  2999 ;;		wreg, status,2, status,0, pclath, cstack
  3000 ;; Tracked objects:
  3001 ;;		On entry : 0/0
  3002 ;;		On exit  : 0/0
  3003 ;;		Unchanged: 0/0
  3004 ;; Data sizes:     COMMON   BANK0   BANK1   BANK3   BANK2
  3005 ;;      Params:         2       0       0       0       0
  3006 ;;      Locals:         0       5       0       0       0
  3007 ;;      Temps:          2       0       0       0       0
  3008 ;;      Totals:         4       5       0       0       0
  3009 ;;Total ram usage:        9 bytes
  3010 ;; Hardware stack levels used:    1
  3011 ;; Hardware stack levels required when called:    1
  3012 ;; This function calls:
  3013 ;;		___wmul
  3014 ;;		_eeprom_read
  3015 ;; This function is called by:
  3016 ;;		_main
  3017 ;; This function uses a non-reentrant model
  3018 ;;
  3019                           
  3020                           
  3021                           ;psect for function _Read_EEPROM
  3022  0AFC                     _Read_EEPROM:	
  3023                           
  3024                           ;incstack = 0
  3025                           ; Regs used in _Read_EEPROM: [wreg+status,2+status,0+pclath+cstack]
  3026                           ;Read_EEPROM@b1 stored from wreg
  3027  0AFC  1283               	bcf	3,5	;RP0=0, select bank0
  3028  0AFD  1303               	bcf	3,6	;RP1=0, select bank0
  3029  0AFE  00A0               	movwf	Read_EEPROM@b1
  3030                           
  3031                           ;mainbrew1double.c: 329: unsigned int c1=0,c2=0;
  3032  0AFF  01A1               	clrf	Read_EEPROM@c1
  3033  0B00  01A2               	clrf	Read_EEPROM@c1+1
  3034  0B01  01A3               	clrf	Read_EEPROM@c2
  3035  0B02  01A4               	clrf	Read_EEPROM@c2+1
  3036                           
  3037                           ;mainbrew1double.c: 330: c1=eeprom_read(b1);
  3038  0B03  0820               	movf	Read_EEPROM@b1,w
  3039  0B04  120A  158A  21A5  120A  158A  	fcall	_eeprom_read
  3040  0B09  00F8               	movwf	??_Read_EEPROM
  3041  0B0A  01F9               	clrf	??_Read_EEPROM+1
  3042  0B0B  0878               	movf	??_Read_EEPROM,w
  3043  0B0C  1283               	bcf	3,5	;RP0=0, select bank0
  3044  0B0D  1303               	bcf	3,6	;RP1=0, select bank0
  3045  0B0E  00A1               	movwf	Read_EEPROM@c1
  3046  0B0F  0879               	movf	??_Read_EEPROM+1,w
  3047  0B10  00A2               	movwf	Read_EEPROM@c1+1
  3048                           
  3049                           ;mainbrew1double.c: 331: c2=eeprom_read(b2);
  3050  0B11  0876               	movf	Read_EEPROM@b2,w
  3051  0B12  120A  158A  21A5  120A  158A  	fcall	_eeprom_read
  3052  0B17  00F8               	movwf	??_Read_EEPROM
  3053  0B18  01F9               	clrf	??_Read_EEPROM+1
  3054  0B19  0878               	movf	??_Read_EEPROM,w
  3055  0B1A  1283               	bcf	3,5	;RP0=0, select bank0
  3056  0B1B  1303               	bcf	3,6	;RP1=0, select bank0
  3057  0B1C  00A3               	movwf	Read_EEPROM@c2
  3058  0B1D  0879               	movf	??_Read_EEPROM+1,w
  3059  0B1E  00A4               	movwf	Read_EEPROM@c2+1
  3060                           
  3061                           ;mainbrew1double.c: 332: return ((c1*10)+c2);
  3062  0B1F  0822               	movf	Read_EEPROM@c1+1,w
  3063  0B20  00F1               	movwf	___wmul@multiplier+1
  3064  0B21  0821               	movf	Read_EEPROM@c1,w
  3065  0B22  00F0               	movwf	___wmul@multiplier
  3066  0B23  300A               	movlw	10
  3067  0B24  00F2               	movwf	___wmul@multiplicand
  3068  0B25  3000               	movlw	0
  3069  0B26  00F3               	movwf	___wmul@multiplicand+1
  3070  0B27  120A  158A  21C0   	fcall	___wmul
  3071  0B2A  1283               	bcf	3,5	;RP0=0, select bank0
  3072  0B2B  1303               	bcf	3,6	;RP1=0, select bank0
  3073  0B2C  0823               	movf	Read_EEPROM@c2,w
  3074  0B2D  0770               	addwf	?___wmul,w
  3075  0B2E  00F6               	movwf	?_Read_EEPROM
  3076  0B2F  0824               	movf	Read_EEPROM@c2+1,w
  3077  0B30  1803               	skipnc
  3078  0B31  0A24               	incf	Read_EEPROM@c2+1,w
  3079  0B32  0771               	addwf	?___wmul+1,w
  3080  0B33  00F7               	movwf	?_Read_EEPROM+1
  3081  0B34  0008               	return
  3082  0B35                     __end_of_Read_EEPROM:	
  3083                           
  3084                           	psect	text12
  3085  09A5                     __ptext12:	
  3086 ;; *************** function _eeprom_read *****************
  3087 ;; Defined at:
  3088 ;;		line 6 in file "C:\Program Files\Microchip\xc8\v1.44\sources\pic\eeread.c"
  3089 ;; Parameters:    Size  Location     Type
  3090 ;;  addr            1    wreg     unsigned char 
  3091 ;; Auto vars:     Size  Location     Type
  3092 ;;  addr            1    1[COMMON] unsigned char 
  3093 ;; Return value:  Size  Location     Type
  3094 ;;                  1    wreg      unsigned char 
  3095 ;; Registers used:
  3096 ;;		wreg, status,2, status,0
  3097 ;; Tracked objects:
  3098 ;;		On entry : 0/0
  3099 ;;		On exit  : 0/0
  3100 ;;		Unchanged: 0/0
  3101 ;; Data sizes:     COMMON   BANK0   BANK1   BANK3   BANK2
  3102 ;;      Params:         0       0       0       0       0
  3103 ;;      Locals:         1       0       0       0       0
  3104 ;;      Temps:          1       0       0       0       0
  3105 ;;      Totals:         2       0       0       0       0
  3106 ;;Total ram usage:        2 bytes
  3107 ;; Hardware stack levels used:    1
  3108 ;; This function calls:
  3109 ;;		Nothing
  3110 ;; This function is called by:
  3111 ;;		_Read_EEPROM
  3112 ;; This function uses a non-reentrant model
  3113 ;;
  3114                           
  3115                           
  3116                           ;psect for function _eeprom_read
  3117  09A5                     _eeprom_read:	
  3118                           
  3119                           ;incstack = 0
  3120                           ; Regs used in _eeprom_read: [wreg+status,2+status,0]
  3121                           ;eeprom_read@addr stored from wreg
  3122  09A5  00F1               	movwf	eeprom_read@addr
  3123  09A6                     l377:	
  3124  09A6  0064               	clrwdt	;# 
  3125  09A7  1683               	bsf	3,5	;RP0=1, select bank3
  3126  09A8  1703               	bsf	3,6	;RP1=1, select bank3
  3127  09A9  188C               	btfsc	12,1	;volsfr
  3128  09AA  29A6               	goto	l377
  3129  09AB  0871               	movf	eeprom_read@addr,w
  3130  09AC  1283               	bcf	3,5	;RP0=0, select bank2
  3131  09AD  1703               	bsf	3,6	;RP1=1, select bank2
  3132  09AE  008D               	movwf	13	;volatile
  3133  09AF  303F               	movlw	63
  3134  09B0  00F0               	movwf	??_eeprom_read
  3135  09B1  0870               	movf	??_eeprom_read,w
  3136  09B2  1683               	bsf	3,5	;RP0=1, select bank3
  3137  09B3  1703               	bsf	3,6	;RP1=1, select bank3
  3138  09B4  058C               	andwf	12,f	;volsfr
  3139  09B5  140C               	bsf	12,0	;volsfr
  3140  09B6  1003               	clrc
  3141  09B7  180C               	btfsc	12,0	;volsfr
  3142  09B8  1403               	setc
  3143  09B9  3000               	movlw	0
  3144  09BA  1803               	skipnc
  3145  09BB  3001               	movlw	1
  3146  09BC  1283               	bcf	3,5	;RP0=0, select bank2
  3147  09BD  1703               	bsf	3,6	;RP1=1, select bank2
  3148  09BE  080C               	movf	12,w	;volatile
  3149  09BF  0008               	return
  3150  09C0                     __end_of_eeprom_read:	
  3151                           
  3152                           	psect	text13
  3153  09C0                     __ptext13:	
  3154 ;; *************** function ___wmul *****************
  3155 ;; Defined at:
  3156 ;;		line 15 in file "C:\Program Files\Microchip\xc8\v1.44\sources\common\Umul16.c"
  3157 ;; Parameters:    Size  Location     Type
  3158 ;;  multiplier      2    0[COMMON] unsigned int 
  3159 ;;  multiplicand    2    2[COMMON] unsigned int 
  3160 ;; Auto vars:     Size  Location     Type
  3161 ;;  product         2    4[COMMON] unsigned int 
  3162 ;; Return value:  Size  Location     Type
  3163 ;;                  2    0[COMMON] unsigned int 
  3164 ;; Registers used:
  3165 ;;		wreg, status,2, status,0
  3166 ;; Tracked objects:
  3167 ;;		On entry : 0/0
  3168 ;;		On exit  : 0/0
  3169 ;;		Unchanged: 0/0
  3170 ;; Data sizes:     COMMON   BANK0   BANK1   BANK3   BANK2
  3171 ;;      Params:         4       0       0       0       0
  3172 ;;      Locals:         2       0       0       0       0
  3173 ;;      Temps:          0       0       0       0       0
  3174 ;;      Totals:         6       0       0       0       0
  3175 ;;Total ram usage:        6 bytes
  3176 ;; Hardware stack levels used:    1
  3177 ;; This function calls:
  3178 ;;		Nothing
  3179 ;; This function is called by:
  3180 ;;		_Read_EEPROM
  3181 ;; This function uses a non-reentrant model
  3182 ;;
  3183                           
  3184                           
  3185                           ;psect for function ___wmul
  3186  09C0                     ___wmul:	
  3187                           
  3188                           ;incstack = 0
  3189                           ; Regs used in ___wmul: [wreg+status,2+status,0]
  3190  09C0  01F4               	clrf	___wmul@product
  3191  09C1  01F5               	clrf	___wmul@product+1
  3192  09C2                     l2053:	
  3193  09C2  1C70               	btfss	___wmul@multiplier,0
  3194  09C3  29CA               	goto	l489
  3195  09C4  0872               	movf	___wmul@multiplicand,w
  3196  09C5  07F4               	addwf	___wmul@product,f
  3197  09C6  1803               	skipnc
  3198  09C7  0AF5               	incf	___wmul@product+1,f
  3199  09C8  0873               	movf	___wmul@multiplicand+1,w
  3200  09C9  07F5               	addwf	___wmul@product+1,f
  3201  09CA                     l489:	
  3202  09CA  3001               	movlw	1
  3203  09CB                     u1835:	
  3204  09CB  1003               	clrc
  3205  09CC  0DF2               	rlf	___wmul@multiplicand,f
  3206  09CD  0DF3               	rlf	___wmul@multiplicand+1,f
  3207  09CE  3EFF               	addlw	-1
  3208  09CF  1D03               	skipz
  3209  09D0  29CB               	goto	u1835
  3210  09D1  3001               	movlw	1
  3211  09D2                     u1845:	
  3212  09D2  1003               	clrc
  3213  09D3  0CF1               	rrf	___wmul@multiplier+1,f
  3214  09D4  0CF0               	rrf	___wmul@multiplier,f
  3215  09D5  3EFF               	addlw	-1
  3216  09D6  1D03               	skipz
  3217  09D7  29D2               	goto	u1845
  3218  09D8  0870               	movf	___wmul@multiplier,w
  3219  09D9  0471               	iorwf	___wmul@multiplier+1,w
  3220  09DA  1D03               	btfss	3,2
  3221  09DB  29C2               	goto	l2053
  3222  09DC  0875               	movf	___wmul@product+1,w
  3223  09DD  00F1               	movwf	?___wmul+1
  3224  09DE  0874               	movf	___wmul@product,w
  3225  09DF  00F0               	movwf	?___wmul
  3226  09E0  0008               	return
  3227  09E1                     __end_of___wmul:	
  3228                           
  3229                           	psect	text14
  3230  0B71                     __ptext14:	
  3231 ;; *************** function _Lcd_Write_String *****************
  3232 ;; Defined at:
  3233 ;;		line 182 in file "mainbrew1double.c"
  3234 ;; Parameters:    Size  Location     Type
  3235 ;;  a               2    5[COMMON] PTR const unsigned char 
  3236 ;;		 -> STR_35(13), STR_34(11), STR_33(14), STR_32(14), 
  3237 ;;		 -> STR_31(17), STR_30(10), STR_29(16), STR_28(15), 
  3238 ;;		 -> STR_27(17), STR_26(16), STR_25(17), STR_24(16), 
  3239 ;;		 -> STR_23(18), STR_22(20), STR_21(9), STR_20(5), 
  3240 ;;		 -> STR_19(2), STR_18(13), STR_17(2), STR_16(17), 
  3241 ;;		 -> STR_15(9), STR_14(15), STR_13(16), STR_12(15), 
  3242 ;;		 -> STR_11(9), STR_10(10), STR_9(4), STR_8(11), 
  3243 ;;		 -> STR_7(15), STR_6(3), STR_5(17), STR_4(17), 
  3244 ;;		 -> STR_3(17), STR_2(13), STR_1(12), 
  3245 ;; Auto vars:     Size  Location     Type
  3246 ;;  i               2   10[COMMON] int 
  3247 ;; Return value:  Size  Location     Type
  3248 ;;                  1    wreg      void 
  3249 ;; Registers used:
  3250 ;;		wreg, fsr0l, fsr0h, status,2, status,0, btemp+1, pclath, cstack
  3251 ;; Tracked objects:
  3252 ;;		On entry : 0/0
  3253 ;;		On exit  : 0/0
  3254 ;;		Unchanged: 0/0
  3255 ;; Data sizes:     COMMON   BANK0   BANK1   BANK3   BANK2
  3256 ;;      Params:         2       0       0       0       0
  3257 ;;      Locals:         2       0       0       0       0
  3258 ;;      Temps:          3       0       0       0       0
  3259 ;;      Totals:         7       0       0       0       0
  3260 ;;Total ram usage:        7 bytes
  3261 ;; Hardware stack levels used:    1
  3262 ;; Hardware stack levels required when called:    2
  3263 ;; This function calls:
  3264 ;;		_Lcd_Write_Char
  3265 ;; This function is called by:
  3266 ;;		_main
  3267 ;;		_relaystatus
  3268 ;; This function uses a non-reentrant model
  3269 ;;
  3270                           
  3271                           
  3272                           ;psect for function _Lcd_Write_String
  3273  0B71                     _Lcd_Write_String:	
  3274                           
  3275                           ;mainbrew1double.c: 186: int i;
  3276                           ;mainbrew1double.c: 187: for(i=0;a[i]!='\0';i++)
  3277                           
  3278                           ;incstack = 0
  3279                           ; Regs used in _Lcd_Write_String: [wreg-fsr0h+status,2+status,0+btemp+1+pclath+cstack]
  3280  0B71  01FA               	clrf	Lcd_Write_String@i
  3281  0B72  01FB               	clrf	Lcd_Write_String@i+1
  3282  0B73                     l2151:	
  3283  0B73  087A               	movf	Lcd_Write_String@i,w
  3284  0B74  0775               	addwf	Lcd_Write_String@a,w
  3285  0B75  00F8               	movwf	??_Lcd_Write_String+1
  3286  0B76  0876               	movf	Lcd_Write_String@a+1,w
  3287  0B77  00F7               	movwf	??_Lcd_Write_String
  3288  0B78  1803               	skipnc
  3289  0B79  0AF7               	incf	??_Lcd_Write_String,f
  3290  0B7A  1BFA               	btfsc	Lcd_Write_String@i,7
  3291  0B7B  03F7               	decf	??_Lcd_Write_String,f
  3292  0B7C  0877               	movf	??_Lcd_Write_String,w
  3293  0B7D  00F9               	movwf	??_Lcd_Write_String+2
  3294  0B7E  0879               	movf	??_Lcd_Write_String+2,w
  3295  0B7F  1283               	bcf	3,5	;RP0=0, select bank0
  3296  0B80  1303               	bcf	3,6	;RP1=0, select bank0
  3297  0B81  00FF               	movwf	127
  3298  0B82  0878               	movf	??_Lcd_Write_String+1,w
  3299  0B83  0084               	movwf	4
  3300  0B84  120A  158A  2000  120A  158A  	fcall	stringtab
  3301  0B89  3A00               	xorlw	0
  3302  0B8A  1903               	btfsc	3,2
  3303  0B8B  0008               	return
  3304                           
  3305                           ;mainbrew1double.c: 188: Lcd_Write_Char(a[i]);
  3306  0B8C  087A               	movf	Lcd_Write_String@i,w
  3307  0B8D  0775               	addwf	Lcd_Write_String@a,w
  3308  0B8E  00F8               	movwf	??_Lcd_Write_String+1
  3309  0B8F  0876               	movf	Lcd_Write_String@a+1,w
  3310  0B90  00F7               	movwf	??_Lcd_Write_String
  3311  0B91  1803               	skipnc
  3312  0B92  0AF7               	incf	??_Lcd_Write_String,f
  3313  0B93  1BFA               	btfsc	Lcd_Write_String@i,7
  3314  0B94  03F7               	decf	??_Lcd_Write_String,f
  3315  0B95  0877               	movf	??_Lcd_Write_String,w
  3316  0B96  00F9               	movwf	??_Lcd_Write_String+2
  3317  0B97  0879               	movf	??_Lcd_Write_String+2,w
  3318  0B98  1283               	bcf	3,5	;RP0=0, select bank0
  3319  0B99  1303               	bcf	3,6	;RP1=0, select bank0
  3320  0B9A  00FF               	movwf	127
  3321  0B9B  0878               	movf	??_Lcd_Write_String+1,w
  3322  0B9C  0084               	movwf	4
  3323  0B9D  120A  158A  2000  120A  158A  	fcall	stringtab
  3324  0BA2  120A  158A  22C5  120A  158A  	fcall	_Lcd_Write_Char
  3325  0BA7  3001               	movlw	1
  3326  0BA8  07FA               	addwf	Lcd_Write_String@i,f
  3327  0BA9  1803               	skipnc
  3328  0BAA  0AFB               	incf	Lcd_Write_String@i+1,f
  3329  0BAB  3000               	movlw	0
  3330  0BAC  07FB               	addwf	Lcd_Write_String@i+1,f
  3331  0BAD  2B73               	goto	l2151
  3332  0BAE                     __end_of_Lcd_Write_String:	
  3333                           
  3334                           	psect	text15
  3335  0AC5                     __ptext15:	
  3336 ;; *************** function _Lcd_Write_Char *****************
  3337 ;; Defined at:
  3338 ;;		line 166 in file "mainbrew1double.c"
  3339 ;; Parameters:    Size  Location     Type
  3340 ;;  a               1    wreg     unsigned char 
  3341 ;; Auto vars:     Size  Location     Type
  3342 ;;  a               1    4[COMMON] unsigned char 
  3343 ;;  y               1    3[COMMON] unsigned char 
  3344 ;;  temp            1    2[COMMON] unsigned char 
  3345 ;; Return value:  Size  Location     Type
  3346 ;;                  1    wreg      void 
  3347 ;; Registers used:
  3348 ;;		wreg, status,2, status,0, pclath, cstack
  3349 ;; Tracked objects:
  3350 ;;		On entry : 0/0
  3351 ;;		On exit  : 0/0
  3352 ;;		Unchanged: 0/0
  3353 ;; Data sizes:     COMMON   BANK0   BANK1   BANK3   BANK2
  3354 ;;      Params:         0       0       0       0       0
  3355 ;;      Locals:         3       0       0       0       0
  3356 ;;      Temps:          1       0       0       0       0
  3357 ;;      Totals:         4       0       0       0       0
  3358 ;;Total ram usage:        4 bytes
  3359 ;; Hardware stack levels used:    1
  3360 ;; Hardware stack levels required when called:    1
  3361 ;; This function calls:
  3362 ;;		_Lcd_Port
  3363 ;; This function is called by:
  3364 ;;		_Lcd_Write_String
  3365 ;;		_lcddisplay
  3366 ;;		_main
  3367 ;; This function uses a non-reentrant model
  3368 ;;
  3369                           
  3370                           
  3371                           ;psect for function _Lcd_Write_Char
  3372  0AC5                     _Lcd_Write_Char:	
  3373                           
  3374                           ;incstack = 0
  3375                           ; Regs used in _Lcd_Write_Char: [wreg+status,2+status,0+pclath+cstack]
  3376                           ;Lcd_Write_Char@a stored from wreg
  3377  0AC5  00F4               	movwf	Lcd_Write_Char@a
  3378                           
  3379                           ;mainbrew1double.c: 168: char temp,y;
  3380                           ;mainbrew1double.c: 169: temp = a&0x0F;
  3381  0AC6  0874               	movf	Lcd_Write_Char@a,w
  3382  0AC7  390F               	andlw	15
  3383  0AC8  00F1               	movwf	??_Lcd_Write_Char
  3384  0AC9  0871               	movf	??_Lcd_Write_Char,w
  3385  0ACA  00F2               	movwf	Lcd_Write_Char@temp
  3386                           
  3387                           ;mainbrew1double.c: 170: y = a&0xF0;
  3388  0ACB  0874               	movf	Lcd_Write_Char@a,w
  3389  0ACC  39F0               	andlw	240
  3390  0ACD  00F1               	movwf	??_Lcd_Write_Char
  3391  0ACE  0871               	movf	??_Lcd_Write_Char,w
  3392  0ACF  00F3               	movwf	Lcd_Write_Char@y
  3393                           
  3394                           ;mainbrew1double.c: 171: RC4 = 1;
  3395  0AD0  1283               	bcf	3,5	;RP0=0, select bank0
  3396  0AD1  1303               	bcf	3,6	;RP1=0, select bank0
  3397  0AD2  1607               	bsf	7,4	;volatile
  3398                           
  3399                           ;mainbrew1double.c: 172: Lcd_Port(y>>4);
  3400  0AD3  0873               	movf	Lcd_Write_Char@y,w
  3401  0AD4  00F1               	movwf	??_Lcd_Write_Char
  3402  0AD5  3004               	movlw	4
  3403  0AD6                     u1685:	
  3404  0AD6  1003               	clrc
  3405  0AD7  0CF1               	rrf	??_Lcd_Write_Char,f
  3406  0AD8  3EFF               	addlw	-1
  3407  0AD9  1D03               	skipz
  3408  0ADA  2AD6               	goto	u1685
  3409  0ADB  0871               	movf	??_Lcd_Write_Char,w
  3410  0ADC  120A  158A  2171  120A  158A  	fcall	_Lcd_Port
  3411                           
  3412                           ;mainbrew1double.c: 173: RC5 = 1;
  3413  0AE1  1283               	bcf	3,5	;RP0=0, select bank0
  3414  0AE2  1303               	bcf	3,6	;RP1=0, select bank0
  3415  0AE3  1687               	bsf	7,5	;volatile
  3416                           
  3417                           ;mainbrew1double.c: 174: _delay((unsigned long)((40)*(4000000/4000000.0)));
  3418  0AE4  300D               	movlw	13
  3419  0AE5  00F1               	movwf	??_Lcd_Write_Char
  3420  0AE6                     u3787:	
  3421  0AE6  0BF1               	decfsz	??_Lcd_Write_Char,f
  3422  0AE7  2AE6               	goto	u3787
  3423                           
  3424                           ;mainbrew1double.c: 175: RC5 = 0;
  3425  0AE8  1283               	bcf	3,5	;RP0=0, select bank0
  3426  0AE9  1303               	bcf	3,6	;RP1=0, select bank0
  3427  0AEA  1287               	bcf	7,5	;volatile
  3428                           
  3429                           ;mainbrew1double.c: 176: Lcd_Port(temp);
  3430  0AEB  0872               	movf	Lcd_Write_Char@temp,w
  3431  0AEC  120A  158A  2171  120A  158A  	fcall	_Lcd_Port
  3432                           
  3433                           ;mainbrew1double.c: 177: RC5 = 1;
  3434  0AF1  1283               	bcf	3,5	;RP0=0, select bank0
  3435  0AF2  1303               	bcf	3,6	;RP1=0, select bank0
  3436  0AF3  1687               	bsf	7,5	;volatile
  3437                           
  3438                           ;mainbrew1double.c: 178: _delay((unsigned long)((40)*(4000000/4000000.0)));
  3439  0AF4  300D               	movlw	13
  3440  0AF5  00F1               	movwf	??_Lcd_Write_Char
  3441  0AF6                     u3797:	
  3442  0AF6  0BF1               	decfsz	??_Lcd_Write_Char,f
  3443  0AF7  2AF6               	goto	u3797
  3444                           
  3445                           ;mainbrew1double.c: 179: RC5 = 0;
  3446  0AF8  1283               	bcf	3,5	;RP0=0, select bank0
  3447  0AF9  1303               	bcf	3,6	;RP1=0, select bank0
  3448  0AFA  1287               	bcf	7,5	;volatile
  3449  0AFB  0008               	return
  3450  0AFC                     __end_of_Lcd_Write_Char:	
  3451                           
  3452                           	psect	text16
  3453  0BEB                     __ptext16:	
  3454 ;; *************** function _Lcd_Set_Cursor *****************
  3455 ;; Defined at:
  3456 ;;		line 126 in file "mainbrew1double.c"
  3457 ;; Parameters:    Size  Location     Type
  3458 ;;  a               1    wreg     unsigned char 
  3459 ;;  b               1    4[COMMON] unsigned char 
  3460 ;; Auto vars:     Size  Location     Type
  3461 ;;  a               1    7[COMMON] unsigned char 
  3462 ;;  temp            1   10[COMMON] unsigned char 
  3463 ;;  y               1    9[COMMON] unsigned char 
  3464 ;;  z               1    8[COMMON] unsigned char 
  3465 ;; Return value:  Size  Location     Type
  3466 ;;                  1    wreg      void 
  3467 ;; Registers used:
  3468 ;;		wreg, status,2, status,0, pclath, cstack
  3469 ;; Tracked objects:
  3470 ;;		On entry : 0/0
  3471 ;;		On exit  : 0/0
  3472 ;;		Unchanged: 0/0
  3473 ;; Data sizes:     COMMON   BANK0   BANK1   BANK3   BANK2
  3474 ;;      Params:         1       0       0       0       0
  3475 ;;      Locals:         4       0       0       0       0
  3476 ;;      Temps:          2       0       0       0       0
  3477 ;;      Totals:         7       0       0       0       0
  3478 ;;Total ram usage:        7 bytes
  3479 ;; Hardware stack levels used:    1
  3480 ;; Hardware stack levels required when called:    2
  3481 ;; This function calls:
  3482 ;;		_Lcd_Cmd
  3483 ;; This function is called by:
  3484 ;;		_main
  3485 ;; This function uses a non-reentrant model
  3486 ;;
  3487                           
  3488                           
  3489                           ;psect for function _Lcd_Set_Cursor
  3490  0BEB                     _Lcd_Set_Cursor:	
  3491                           
  3492                           ;incstack = 0
  3493                           ; Regs used in _Lcd_Set_Cursor: [wreg+status,2+status,0+pclath+cstack]
  3494                           ;Lcd_Set_Cursor@a stored from wreg
  3495  0BEB  00F7               	movwf	Lcd_Set_Cursor@a
  3496                           
  3497                           ;mainbrew1double.c: 128: char temp,z,y;
  3498                           ;mainbrew1double.c: 129: if(a == 1)
  3499  0BEC  0377               	decf	Lcd_Set_Cursor@a,w
  3500  0BED  1D03               	btfss	3,2
  3501  0BEE  2C10               	goto	l2125
  3502                           
  3503                           ;mainbrew1double.c: 130: {
  3504                           ;mainbrew1double.c: 131: temp = 0x80 + b - 1;
  3505  0BEF  0874               	movf	Lcd_Set_Cursor@b,w
  3506  0BF0  3E7F               	addlw	127
  3507  0BF1  00F5               	movwf	??_Lcd_Set_Cursor
  3508  0BF2  0875               	movf	??_Lcd_Set_Cursor,w
  3509  0BF3  00FA               	movwf	Lcd_Set_Cursor@temp
  3510                           
  3511                           ;mainbrew1double.c: 132: z = temp>>4;
  3512  0BF4  087A               	movf	Lcd_Set_Cursor@temp,w
  3513  0BF5  00F5               	movwf	??_Lcd_Set_Cursor
  3514  0BF6  3004               	movlw	4
  3515  0BF7                     u2005:	
  3516  0BF7  1003               	clrc
  3517  0BF8  0CF5               	rrf	??_Lcd_Set_Cursor,f
  3518  0BF9  3EFF               	addlw	-1
  3519  0BFA  1D03               	skipz
  3520  0BFB  2BF7               	goto	u2005
  3521  0BFC  0875               	movf	??_Lcd_Set_Cursor,w
  3522  0BFD  00F6               	movwf	??_Lcd_Set_Cursor+1
  3523  0BFE  0876               	movf	??_Lcd_Set_Cursor+1,w
  3524  0BFF  00F8               	movwf	Lcd_Set_Cursor@z
  3525                           
  3526                           ;mainbrew1double.c: 133: y = temp & 0x0F;
  3527  0C00  087A               	movf	Lcd_Set_Cursor@temp,w
  3528  0C01  390F               	andlw	15
  3529  0C02  00F5               	movwf	??_Lcd_Set_Cursor
  3530  0C03  0875               	movf	??_Lcd_Set_Cursor,w
  3531  0C04  00F9               	movwf	Lcd_Set_Cursor@y
  3532                           
  3533                           ;mainbrew1double.c: 134: Lcd_Cmd(z);
  3534  0C05  0878               	movf	Lcd_Set_Cursor@z,w
  3535  0C06  120A  158A  218B  120A  158A  	fcall	_Lcd_Cmd
  3536                           
  3537                           ;mainbrew1double.c: 135: Lcd_Cmd(y);
  3538  0C0B  0879               	movf	Lcd_Set_Cursor@y,w
  3539  0C0C  120A  158A  218B   	fcall	_Lcd_Cmd
  3540                           
  3541                           ;mainbrew1double.c: 136: }
  3542  0C0F  0008               	return
  3543  0C10                     l2125:	
  3544                           
  3545                           ;mainbrew1double.c: 137: else if(a == 2)
  3546  0C10  3002               	movlw	2
  3547  0C11  0677               	xorwf	Lcd_Set_Cursor@a,w
  3548  0C12  1D03               	btfss	3,2
  3549  0C13  0008               	return
  3550                           
  3551                           ;mainbrew1double.c: 138: {
  3552                           ;mainbrew1double.c: 139: temp = 0xC0 + b - 1;
  3553  0C14  0874               	movf	Lcd_Set_Cursor@b,w
  3554  0C15  3EBF               	addlw	191
  3555  0C16  00F5               	movwf	??_Lcd_Set_Cursor
  3556  0C17  0875               	movf	??_Lcd_Set_Cursor,w
  3557  0C18  00FA               	movwf	Lcd_Set_Cursor@temp
  3558                           
  3559                           ;mainbrew1double.c: 140: z = temp>>4;
  3560  0C19  087A               	movf	Lcd_Set_Cursor@temp,w
  3561  0C1A  00F5               	movwf	??_Lcd_Set_Cursor
  3562  0C1B  3004               	movlw	4
  3563  0C1C                     u2025:	
  3564  0C1C  1003               	clrc
  3565  0C1D  0CF5               	rrf	??_Lcd_Set_Cursor,f
  3566  0C1E  3EFF               	addlw	-1
  3567  0C1F  1D03               	skipz
  3568  0C20  2C1C               	goto	u2025
  3569  0C21  0875               	movf	??_Lcd_Set_Cursor,w
  3570  0C22  00F6               	movwf	??_Lcd_Set_Cursor+1
  3571  0C23  0876               	movf	??_Lcd_Set_Cursor+1,w
  3572  0C24  00F8               	movwf	Lcd_Set_Cursor@z
  3573                           
  3574                           ;mainbrew1double.c: 141: y = temp & 0x0F;
  3575  0C25  087A               	movf	Lcd_Set_Cursor@temp,w
  3576  0C26  390F               	andlw	15
  3577  0C27  00F5               	movwf	??_Lcd_Set_Cursor
  3578  0C28  0875               	movf	??_Lcd_Set_Cursor,w
  3579  0C29  00F9               	movwf	Lcd_Set_Cursor@y
  3580                           
  3581                           ;mainbrew1double.c: 142: Lcd_Cmd(z);
  3582  0C2A  0878               	movf	Lcd_Set_Cursor@z,w
  3583  0C2B  120A  158A  218B  120A  158A  	fcall	_Lcd_Cmd
  3584                           
  3585                           ;mainbrew1double.c: 143: Lcd_Cmd(y);
  3586  0C30  0879               	movf	Lcd_Set_Cursor@y,w
  3587  0C31  120A  158A  218B   	fcall	_Lcd_Cmd
  3588  0C34  0008               	return
  3589  0C35                     __end_of_Lcd_Set_Cursor:	
  3590                           
  3591                           	psect	text17
  3592  002A                     __ptext17:	
  3593 ;; *************** function _Lcd_Init *****************
  3594 ;; Defined at:
  3595 ;;		line 147 in file "mainbrew1double.c"
  3596 ;; Parameters:    Size  Location     Type
  3597 ;;		None
  3598 ;; Auto vars:     Size  Location     Type
  3599 ;;		None
  3600 ;; Return value:  Size  Location     Type
  3601 ;;                  1    wreg      void 
  3602 ;; Registers used:
  3603 ;;		wreg, status,2, status,0, pclath, cstack
  3604 ;; Tracked objects:
  3605 ;;		On entry : 0/0
  3606 ;;		On exit  : 0/0
  3607 ;;		Unchanged: 0/0
  3608 ;; Data sizes:     COMMON   BANK0   BANK1   BANK3   BANK2
  3609 ;;      Params:         0       0       0       0       0
  3610 ;;      Locals:         0       0       0       0       0
  3611 ;;      Temps:          2       0       0       0       0
  3612 ;;      Totals:         2       0       0       0       0
  3613 ;;Total ram usage:        2 bytes
  3614 ;; Hardware stack levels used:    1
  3615 ;; Hardware stack levels required when called:    2
  3616 ;; This function calls:
  3617 ;;		_Lcd_Cmd
  3618 ;;		_Lcd_Port
  3619 ;; This function is called by:
  3620 ;;		_main
  3621 ;; This function uses a non-reentrant model
  3622 ;;
  3623                           
  3624                           
  3625                           ;psect for function _Lcd_Init
  3626  002A                     _Lcd_Init:	
  3627                           
  3628                           ;mainbrew1double.c: 149: Lcd_Port(0x00);
  3629                           
  3630                           ;incstack = 0
  3631                           ; Regs used in _Lcd_Init: [wreg+status,2+status,0+pclath+cstack]
  3632  002A  3000               	movlw	0
  3633  002B  120A  158A  2171  120A  118A  	fcall	_Lcd_Port
  3634                           
  3635                           ;mainbrew1double.c: 150: _delay((unsigned long)((20)*(4000000/4000.0)));
  3636  0030  301A               	movlw	26
  3637  0031  00F5               	movwf	??_Lcd_Init+1
  3638  0032  30F8               	movlw	248
  3639  0033  00F4               	movwf	??_Lcd_Init
  3640  0034                     u3807:	
  3641  0034  0BF4               	decfsz	??_Lcd_Init,f
  3642  0035  2834               	goto	u3807
  3643  0036  0BF5               	decfsz	??_Lcd_Init+1,f
  3644  0037  2834               	goto	u3807
  3645  0038  0000               	nop
  3646                           
  3647                           ;mainbrew1double.c: 151: Lcd_Cmd(0x03);
  3648  0039  3003               	movlw	3
  3649  003A  120A  158A  218B  120A  118A  	fcall	_Lcd_Cmd
  3650                           
  3651                           ;mainbrew1double.c: 152: _delay((unsigned long)((5)*(4000000/4000.0)));
  3652  003F  3007               	movlw	7
  3653  0040  00F5               	movwf	??_Lcd_Init+1
  3654  0041  307D               	movlw	125
  3655  0042  00F4               	movwf	??_Lcd_Init
  3656  0043                     u3817:	
  3657  0043  0BF4               	decfsz	??_Lcd_Init,f
  3658  0044  2843               	goto	u3817
  3659  0045  0BF5               	decfsz	??_Lcd_Init+1,f
  3660  0046  2843               	goto	u3817
  3661                           
  3662                           ;mainbrew1double.c: 153: Lcd_Cmd(0x03);
  3663  0047  3003               	movlw	3
  3664  0048  120A  158A  218B  120A  118A  	fcall	_Lcd_Cmd
  3665                           
  3666                           ;mainbrew1double.c: 154: _delay((unsigned long)((11)*(4000000/4000.0)));
  3667  004D  300F               	movlw	15
  3668  004E  00F5               	movwf	??_Lcd_Init+1
  3669  004F  3047               	movlw	71
  3670  0050  00F4               	movwf	??_Lcd_Init
  3671  0051                     u3827:	
  3672  0051  0BF4               	decfsz	??_Lcd_Init,f
  3673  0052  2851               	goto	u3827
  3674  0053  0BF5               	decfsz	??_Lcd_Init+1,f
  3675  0054  2851               	goto	u3827
  3676  0055  2856               	nop2
  3677                           
  3678                           ;mainbrew1double.c: 155: Lcd_Cmd(0x03);
  3679  0056  3003               	movlw	3
  3680  0057  120A  158A  218B  120A  118A  	fcall	_Lcd_Cmd
  3681                           
  3682                           ;mainbrew1double.c: 157: Lcd_Cmd(0x02);
  3683  005C  3002               	movlw	2
  3684  005D  120A  158A  218B  120A  118A  	fcall	_Lcd_Cmd
  3685                           
  3686                           ;mainbrew1double.c: 158: Lcd_Cmd(0x02);
  3687  0062  3002               	movlw	2
  3688  0063  120A  158A  218B  120A  118A  	fcall	_Lcd_Cmd
  3689                           
  3690                           ;mainbrew1double.c: 159: Lcd_Cmd(0x08);
  3691  0068  3008               	movlw	8
  3692  0069  120A  158A  218B  120A  118A  	fcall	_Lcd_Cmd
  3693                           
  3694                           ;mainbrew1double.c: 160: Lcd_Cmd(0x00);
  3695  006E  3000               	movlw	0
  3696  006F  120A  158A  218B  120A  118A  	fcall	_Lcd_Cmd
  3697                           
  3698                           ;mainbrew1double.c: 161: Lcd_Cmd(0x0C);
  3699  0074  300C               	movlw	12
  3700  0075  120A  158A  218B  120A  118A  	fcall	_Lcd_Cmd
  3701                           
  3702                           ;mainbrew1double.c: 162: Lcd_Cmd(0x00);
  3703  007A  3000               	movlw	0
  3704  007B  120A  158A  218B  120A  118A  	fcall	_Lcd_Cmd
  3705                           
  3706                           ;mainbrew1double.c: 163: Lcd_Cmd(0x06);
  3707  0080  3006               	movlw	6
  3708  0081  120A  158A  218B   	fcall	_Lcd_Cmd
  3709  0084  0008               	return
  3710  0085                     __end_of_Lcd_Init:	
  3711                           
  3712                           	psect	text18
  3713  0966                     __ptext18:	
  3714 ;; *************** function _Lcd_Clear *****************
  3715 ;; Defined at:
  3716 ;;		line 120 in file "mainbrew1double.c"
  3717 ;; Parameters:    Size  Location     Type
  3718 ;;		None
  3719 ;; Auto vars:     Size  Location     Type
  3720 ;;		None
  3721 ;; Return value:  Size  Location     Type
  3722 ;;                  1    wreg      void 
  3723 ;; Registers used:
  3724 ;;		wreg, status,2, status,0, pclath, cstack
  3725 ;; Tracked objects:
  3726 ;;		On entry : 0/0
  3727 ;;		On exit  : 0/0
  3728 ;;		Unchanged: 0/0
  3729 ;; Data sizes:     COMMON   BANK0   BANK1   BANK3   BANK2
  3730 ;;      Params:         0       0       0       0       0
  3731 ;;      Locals:         0       0       0       0       0
  3732 ;;      Temps:          0       0       0       0       0
  3733 ;;      Totals:         0       0       0       0       0
  3734 ;;Total ram usage:        0 bytes
  3735 ;; Hardware stack levels used:    1
  3736 ;; Hardware stack levels required when called:    2
  3737 ;; This function calls:
  3738 ;;		_Lcd_Cmd
  3739 ;; This function is called by:
  3740 ;;		_main
  3741 ;;		_relaystatus
  3742 ;; This function uses a non-reentrant model
  3743 ;;
  3744                           
  3745                           
  3746                           ;psect for function _Lcd_Clear
  3747  0966                     _Lcd_Clear:	
  3748                           
  3749                           ;mainbrew1double.c: 122: Lcd_Cmd(0);
  3750                           
  3751                           ;incstack = 0
  3752                           ; Regs used in _Lcd_Clear: [wreg+status,2+status,0+pclath+cstack]
  3753  0966  3000               	movlw	0
  3754  0967  120A  158A  218B  120A  158A  	fcall	_Lcd_Cmd
  3755                           
  3756                           ;mainbrew1double.c: 123: Lcd_Cmd(1);
  3757  096C  3001               	movlw	1
  3758  096D  120A  158A  218B   	fcall	_Lcd_Cmd
  3759  0970  0008               	return
  3760  0971                     __end_of_Lcd_Clear:	
  3761                           
  3762                           	psect	text19
  3763  098B                     __ptext19:	
  3764 ;; *************** function _Lcd_Cmd *****************
  3765 ;; Defined at:
  3766 ;;		line 111 in file "mainbrew1double.c"
  3767 ;; Parameters:    Size  Location     Type
  3768 ;;  a               1    wreg     unsigned char 
  3769 ;; Auto vars:     Size  Location     Type
  3770 ;;  a               1    3[COMMON] unsigned char 
  3771 ;; Return value:  Size  Location     Type
  3772 ;;                  1    wreg      void 
  3773 ;; Registers used:
  3774 ;;		wreg, status,2, status,0, pclath, cstack
  3775 ;; Tracked objects:
  3776 ;;		On entry : 0/0
  3777 ;;		On exit  : 0/0
  3778 ;;		Unchanged: 0/0
  3779 ;; Data sizes:     COMMON   BANK0   BANK1   BANK3   BANK2
  3780 ;;      Params:         0       0       0       0       0
  3781 ;;      Locals:         1       0       0       0       0
  3782 ;;      Temps:          2       0       0       0       0
  3783 ;;      Totals:         3       0       0       0       0
  3784 ;;Total ram usage:        3 bytes
  3785 ;; Hardware stack levels used:    1
  3786 ;; Hardware stack levels required when called:    1
  3787 ;; This function calls:
  3788 ;;		_Lcd_Port
  3789 ;; This function is called by:
  3790 ;;		_Lcd_Clear
  3791 ;;		_Lcd_Set_Cursor
  3792 ;;		_Lcd_Init
  3793 ;; This function uses a non-reentrant model
  3794 ;;
  3795                           
  3796                           
  3797                           ;psect for function _Lcd_Cmd
  3798  098B                     _Lcd_Cmd:	
  3799                           
  3800                           ;incstack = 0
  3801                           ; Regs used in _Lcd_Cmd: [wreg+status,2+status,0+pclath+cstack]
  3802                           ;Lcd_Cmd@a stored from wreg
  3803  098B  00F3               	movwf	Lcd_Cmd@a
  3804                           
  3805                           ;mainbrew1double.c: 113: RC4 = 0;
  3806  098C  1283               	bcf	3,5	;RP0=0, select bank0
  3807  098D  1303               	bcf	3,6	;RP1=0, select bank0
  3808  098E  1207               	bcf	7,4	;volatile
  3809                           
  3810                           ;mainbrew1double.c: 114: Lcd_Port(a);
  3811  098F  0873               	movf	Lcd_Cmd@a,w
  3812  0990  120A  158A  2171  120A  158A  	fcall	_Lcd_Port
  3813                           
  3814                           ;mainbrew1double.c: 115: RC5 = 1;
  3815  0995  1283               	bcf	3,5	;RP0=0, select bank0
  3816  0996  1303               	bcf	3,6	;RP1=0, select bank0
  3817  0997  1687               	bsf	7,5	;volatile
  3818                           
  3819                           ;mainbrew1double.c: 116: _delay((unsigned long)((4)*(4000000/4000.0)));
  3820  0998  3006               	movlw	6
  3821  0999  00F2               	movwf	??_Lcd_Cmd+1
  3822  099A  3030               	movlw	48
  3823  099B  00F1               	movwf	??_Lcd_Cmd
  3824  099C                     u3837:	
  3825  099C  0BF1               	decfsz	??_Lcd_Cmd,f
  3826  099D  299C               	goto	u3837
  3827  099E  0BF2               	decfsz	??_Lcd_Cmd+1,f
  3828  099F  299C               	goto	u3837
  3829  09A0  0000               	nop
  3830                           
  3831                           ;mainbrew1double.c: 117: RC5 = 0;
  3832  09A1  1283               	bcf	3,5	;RP0=0, select bank0
  3833  09A2  1303               	bcf	3,6	;RP1=0, select bank0
  3834  09A3  1287               	bcf	7,5	;volatile
  3835  09A4  0008               	return
  3836  09A5                     __end_of_Lcd_Cmd:	
  3837                           
  3838                           	psect	text20
  3839  0971                     __ptext20:	
  3840 ;; *************** function _Lcd_Port *****************
  3841 ;; Defined at:
  3842 ;;		line 89 in file "mainbrew1double.c"
  3843 ;; Parameters:    Size  Location     Type
  3844 ;;  a               1    wreg     unsigned char 
  3845 ;; Auto vars:     Size  Location     Type
  3846 ;;  a               1    0[COMMON] unsigned char 
  3847 ;; Return value:  Size  Location     Type
  3848 ;;                  1    wreg      void 
  3849 ;; Registers used:
  3850 ;;		wreg
  3851 ;; Tracked objects:
  3852 ;;		On entry : 0/0
  3853 ;;		On exit  : 0/0
  3854 ;;		Unchanged: 0/0
  3855 ;; Data sizes:     COMMON   BANK0   BANK1   BANK3   BANK2
  3856 ;;      Params:         0       0       0       0       0
  3857 ;;      Locals:         1       0       0       0       0
  3858 ;;      Temps:          0       0       0       0       0
  3859 ;;      Totals:         1       0       0       0       0
  3860 ;;Total ram usage:        1 bytes
  3861 ;; Hardware stack levels used:    1
  3862 ;; This function calls:
  3863 ;;		Nothing
  3864 ;; This function is called by:
  3865 ;;		_Lcd_Cmd
  3866 ;;		_Lcd_Init
  3867 ;;		_Lcd_Write_Char
  3868 ;; This function uses a non-reentrant model
  3869 ;;
  3870                           
  3871                           
  3872                           ;psect for function _Lcd_Port
  3873  0971                     _Lcd_Port:	
  3874                           
  3875                           ;incstack = 0
  3876                           ; Regs used in _Lcd_Port: [wreg]
  3877                           ;Lcd_Port@a stored from wreg
  3878  0971  00F0               	movwf	Lcd_Port@a
  3879                           
  3880                           ;mainbrew1double.c: 91: if(a & 1)
  3881  0972  1C70               	btfss	Lcd_Port@a,0
  3882  0973  2978               	goto	l109
  3883                           
  3884                           ;mainbrew1double.c: 92: RB0 = 1;
  3885  0974  1283               	bcf	3,5	;RP0=0, select bank0
  3886  0975  1303               	bcf	3,6	;RP1=0, select bank0
  3887  0976  1406               	bsf	6,0	;volatile
  3888  0977  297B               	goto	l110
  3889  0978                     l109:	
  3890                           
  3891                           ;mainbrew1double.c: 93: else
  3892                           ;mainbrew1double.c: 94: RB0 = 0;
  3893  0978  1283               	bcf	3,5	;RP0=0, select bank0
  3894  0979  1303               	bcf	3,6	;RP1=0, select bank0
  3895  097A  1006               	bcf	6,0	;volatile
  3896  097B                     l110:	
  3897                           
  3898                           ;mainbrew1double.c: 96: if(a & 2)
  3899  097B  1CF0               	btfss	Lcd_Port@a,1
  3900  097C  297F               	goto	l111
  3901                           
  3902                           ;mainbrew1double.c: 97: RB1 = 1;
  3903  097D  1486               	bsf	6,1	;volatile
  3904  097E  2980               	goto	l112
  3905  097F                     l111:	
  3906                           
  3907                           ;mainbrew1double.c: 98: else
  3908                           ;mainbrew1double.c: 99: RB1 = 0;
  3909  097F  1086               	bcf	6,1	;volatile
  3910  0980                     l112:	
  3911                           
  3912                           ;mainbrew1double.c: 101: if(a & 4)
  3913  0980  1D70               	btfss	Lcd_Port@a,2
  3914  0981  2984               	goto	l113
  3915                           
  3916                           ;mainbrew1double.c: 102: RB2 = 1;
  3917  0982  1506               	bsf	6,2	;volatile
  3918  0983  2985               	goto	l114
  3919  0984                     l113:	
  3920                           
  3921                           ;mainbrew1double.c: 103: else
  3922                           ;mainbrew1double.c: 104: RB2 = 0;
  3923  0984  1106               	bcf	6,2	;volatile
  3924  0985                     l114:	
  3925                           
  3926                           ;mainbrew1double.c: 106: if(a & 8)
  3927  0985  1DF0               	btfss	Lcd_Port@a,3
  3928  0986  2989               	goto	l115
  3929                           
  3930                           ;mainbrew1double.c: 107: RB3 = 1;
  3931  0987  1586               	bsf	6,3	;volatile
  3932  0988  0008               	return
  3933  0989                     l115:	
  3934                           
  3935                           ;mainbrew1double.c: 108: else
  3936                           ;mainbrew1double.c: 109: RB3 = 0;
  3937  0989  1186               	bcf	6,3	;volatile
  3938  098A  0008               	return
  3939  098B                     __end_of_Lcd_Port:	
  3940  007E                     btemp	set	126	;btemp
  3941  007E                     wtemp0	set	126
  3942                           
  3943                           	psect	maintext_split_1
  3944  0C8E                     l2403:	
  3945                           
  3946                           ;mainbrew1double.c: 519: {
  3947                           ;mainbrew1double.c: 520: if(highval == 99)
  3948  0C8E  3063               	movlw	99
  3949  0C8F  0665               	xorwf	_highval,w
  3950  0C90  0466               	iorwf	_highval+1,w
  3951  0C91  1D03               	btfss	3,2
  3952  0C92  2C95               	goto	l2407
  3953                           
  3954                           ;mainbrew1double.c: 521: {
  3955                           ;mainbrew1double.c: 522: highval = 00;
  3956  0C93  01E5               	clrf	_highval
  3957  0C94  01E6               	clrf	_highval+1
  3958  0C95                     l2407:	
  3959                           
  3960                           ;mainbrew1double.c: 523: }
  3961                           ;mainbrew1double.c: 526: highval++;
  3962  0C95  3001               	movlw	1
  3963  0C96  07E5               	addwf	_highval,f
  3964  0C97  1803               	skipnc
  3965  0C98  0AE6               	incf	_highval+1,f
  3966  0C99  3000               	movlw	0
  3967  0C9A  07E6               	addwf	_highval+1,f
  3968                           
  3969                           ;mainbrew1double.c: 527: _delay((unsigned long)((150)*(4000000/4000.0)));
  3970  0C9B  30C3               	movlw	195
  3971  0C9C  1283               	bcf	3,5	;RP0=0, select bank0
  3972  0C9D  1303               	bcf	3,6	;RP1=0, select bank0
  3973  0C9E  00A6               	movwf	??_main+1
  3974  0C9F  30CC               	movlw	204
  3975  0CA0  00A5               	movwf	??_main
  3976  0CA1                     u3387:	
  3977  0CA1  0BA5               	decfsz	??_main,f
  3978  0CA2  2CA1               	goto	u3387
  3979  0CA3  0BA6               	decfsz	??_main+1,f
  3980  0CA4  2CA1               	goto	u3387
  3981  0CA5  0000               	nop
  3982                           
  3983                           ;mainbrew1double.c: 529: }
  3984  0CA6  2CC0               	goto	l2389
  3985  0CA7                     l2411:	
  3986                           
  3987                           ;mainbrew1double.c: 531: {
  3988                           ;mainbrew1double.c: 532: if(highval == 0)
  3989  0CA7  0865               	movf	_highval,w
  3990  0CA8  0466               	iorwf	_highval+1,w
  3991  0CA9  1D03               	btfss	3,2
  3992  0CAA  2CAF               	goto	l221
  3993                           
  3994                           ;mainbrew1double.c: 533: {
  3995                           ;mainbrew1double.c: 534: highval = 99;
  3996  0CAB  3063               	movlw	99
  3997  0CAC  00E5               	movwf	_highval
  3998  0CAD  3000               	movlw	0
  3999  0CAE  00E6               	movwf	_highval+1
  4000  0CAF                     l221:	
  4001                           
  4002                           ;mainbrew1double.c: 535: }
  4003                           ;mainbrew1double.c: 536: highval--;
  4004  0CAF  30FF               	movlw	255
  4005  0CB0  07E5               	addwf	_highval,f
  4006  0CB1  1803               	skipnc
  4007  0CB2  0AE6               	incf	_highval+1,f
  4008  0CB3  30FF               	movlw	255
  4009  0CB4  07E6               	addwf	_highval+1,f
  4010                           
  4011                           ;mainbrew1double.c: 537: _delay((unsigned long)((150)*(4000000/4000.0)));
  4012  0CB5  30C3               	movlw	195
  4013  0CB6  1283               	bcf	3,5	;RP0=0, select bank0
  4014  0CB7  1303               	bcf	3,6	;RP1=0, select bank0
  4015  0CB8  00A6               	movwf	??_main+1
  4016  0CB9  30CC               	movlw	204
  4017  0CBA  00A5               	movwf	??_main
  4018  0CBB                     u3397:	
  4019  0CBB  0BA5               	decfsz	??_main,f
  4020  0CBC  2CBB               	goto	u3397
  4021  0CBD  0BA6               	decfsz	??_main+1,f
  4022  0CBE  2CBB               	goto	u3397
  4023  0CBF  0000               	nop
  4024  0CC0                     l2389:	
  4025                           ;mainbrew1double.c: 510: {
  4026                           ;mainbrew1double.c: 511: reval:
  4027                           
  4028                           ;mainbrew1double.c: 509: while (1)
  4029                           
  4030                           ;mainbrew1double.c: 540: }
  4031                           
  4032                           
  4033                           ;mainbrew1double.c: 512: Lcd_Set_Cursor(1,7);
  4034  0CC0  3007               	movlw	7
  4035  0CC1  1283               	bcf	3,5	;RP0=0, select bank0
  4036  0CC2  1303               	bcf	3,6	;RP1=0, select bank0
  4037  0CC3  00A5               	movwf	??_main
  4038  0CC4  0825               	movf	??_main,w
  4039  0CC5  00F4               	movwf	Lcd_Set_Cursor@b
  4040  0CC6  3001               	movlw	1
  4041  0CC7  120A  158A  23EB  120A  158A  	fcall	_Lcd_Set_Cursor
  4042                           
  4043                           ;mainbrew1double.c: 513: Lcd_Write_String("SET");
  4044  0CCC  306F               	movlw	low (STR_9| (0+32768))
  4045  0CCD  00F5               	movwf	Lcd_Write_String@a
  4046  0CCE  3091               	movlw	high (STR_9| (0+32768))
  4047  0CCF  00F6               	movwf	Lcd_Write_String@a+1
  4048  0CD0  120A  158A  2371  120A  158A  	fcall	_Lcd_Write_String
  4049                           
  4050                           ;mainbrew1double.c: 514: Lcd_Set_Cursor(2,4);
  4051  0CD5  3004               	movlw	4
  4052  0CD6  1283               	bcf	3,5	;RP0=0, select bank0
  4053  0CD7  1303               	bcf	3,6	;RP1=0, select bank0
  4054  0CD8  00A5               	movwf	??_main
  4055  0CD9  0825               	movf	??_main,w
  4056  0CDA  00F4               	movwf	Lcd_Set_Cursor@b
  4057  0CDB  3002               	movlw	2
  4058  0CDC  120A  158A  23EB  120A  158A  	fcall	_Lcd_Set_Cursor
  4059                           
  4060                           ;mainbrew1double.c: 515: Lcd_Write_String("MAX TEMP:");
  4061  0CE1  303B               	movlw	low (STR_10| (0+32768))
  4062  0CE2  00F5               	movwf	Lcd_Write_String@a
  4063  0CE3  3091               	movlw	high (STR_10| (0+32768))
  4064  0CE4  00F6               	movwf	Lcd_Write_String@a+1
  4065  0CE5  120A  158A  2371  120A  158A  	fcall	_Lcd_Write_String
  4066                           
  4067                           ;mainbrew1double.c: 516: Lcd_Set_Cursor(2,13);
  4068  0CEA  300D               	movlw	13
  4069  0CEB  1283               	bcf	3,5	;RP0=0, select bank0
  4070  0CEC  1303               	bcf	3,6	;RP1=0, select bank0
  4071  0CED  00A5               	movwf	??_main
  4072  0CEE  0825               	movf	??_main,w
  4073  0CEF  00F4               	movwf	Lcd_Set_Cursor@b
  4074  0CF0  3002               	movlw	2
  4075  0CF1  120A  158A  23EB  120A  158A  	fcall	_Lcd_Set_Cursor
  4076                           
  4077                           ;mainbrew1double.c: 517: lcddisplay(highval);
  4078  0CF6  1283               	bcf	3,5	;RP0=0, select bank0
  4079  0CF7  1303               	bcf	3,6	;RP1=0, select bank0
  4080  0CF8  0866               	movf	_highval+1,w
  4081  0CF9  00F9               	movwf	lcddisplay@num+1
  4082  0CFA  0865               	movf	_highval,w
  4083  0CFB  00F8               	movwf	lcddisplay@num
  4084  0CFC  120A  118A  2003  120A  158A  	fcall	_lcddisplay
  4085                           
  4086                           ;mainbrew1double.c: 518: if(!RB6)
  4087  0D01  1283               	bcf	3,5	;RP0=0, select bank0
  4088  0D02  1303               	bcf	3,6	;RP1=0, select bank0
  4089  0D03  1F06               	btfss	6,6	;volatile
  4090  0D04  2C8E               	goto	l2403
  4091                           
  4092                           ;mainbrew1double.c: 530: else if(!RB5)
  4093  0D05  1E86               	btfss	6,5	;volatile
  4094  0D06  2CA7               	goto	l2411
  4095                           
  4096                           ;mainbrew1double.c: 542: else if(!RB7)
  4097  0D07  1B86               	btfsc	6,7	;volatile
  4098  0D08  2CC0               	goto	l2389
  4099  0D09                     l224:	
  4100                           ;mainbrew1double.c: 543: {
  4101                           ;mainbrew1double.c: 544: while(!RB7);
  4102                           
  4103  0D09  1F86               	btfss	6,7	;volatile
  4104  0D0A  2D09               	goto	l224
  4105                           
  4106                           ;mainbrew1double.c: 546: Lcd_Clear();
  4107  0D0B  120A  158A  2166  120A  158A  	fcall	_Lcd_Clear
  4108                           
  4109                           ;mainbrew1double.c: 547: Lcd_Set_Cursor(1,1);
  4110  0D10  01F4               	clrf	Lcd_Set_Cursor@b
  4111  0D11  0AF4               	incf	Lcd_Set_Cursor@b,f
  4112  0D12  3001               	movlw	1
  4113  0D13  120A  158A  23EB  120A  158A  	fcall	_Lcd_Set_Cursor
  4114                           
  4115                           ;mainbrew1double.c: 548: Lcd_Write_String("Checking");
  4116  0D18  3061               	movlw	low (STR_11| (0+32768))
  4117  0D19  00F5               	movwf	Lcd_Write_String@a
  4118  0D1A  3091               	movlw	high (STR_11| (0+32768))
  4119  0D1B  00F6               	movwf	Lcd_Write_String@a+1
  4120  0D1C  120A  158A  2371  120A  158A  	fcall	_Lcd_Write_String
  4121                           
  4122                           ;mainbrew1double.c: 549: Lcd_Set_Cursor(2,1);
  4123  0D21  01F4               	clrf	Lcd_Set_Cursor@b
  4124  0D22  0AF4               	incf	Lcd_Set_Cursor@b,f
  4125  0D23  3002               	movlw	2
  4126  0D24  120A  158A  23EB  120A  158A  	fcall	_Lcd_Set_Cursor
  4127                           
  4128                           ;mainbrew1double.c: 550: Lcd_Write_String("Temperature...");
  4129  0D29  30A9               	movlw	low (STR_12| (0+32768))
  4130  0D2A  00F5               	movwf	Lcd_Write_String@a
  4131  0D2B  3090               	movlw	high (STR_12| (0+32768))
  4132  0D2C  00F6               	movwf	Lcd_Write_String@a+1
  4133  0D2D  120A  158A  2371  120A  158A  	fcall	_Lcd_Write_String
  4134                           
  4135                           ;mainbrew1double.c: 552: tempval = checktemp();
  4136  0D32  120A  118A  2085  120A  158A  	fcall	_checktemp
  4137  0D37  0875               	movf	?_checktemp+1,w
  4138  0D38  1283               	bcf	3,5	;RP0=0, select bank0
  4139  0D39  1303               	bcf	3,6	;RP1=0, select bank0
  4140  0D3A  00E2               	movwf	_tempval+1
  4141  0D3B  0874               	movf	?_checktemp,w
  4142  0D3C  00E1               	movwf	_tempval
  4143                           
  4144                           ;mainbrew1double.c: 553: _delay((unsigned long)((1000)*(4000000/4000.0)));
  4145  0D3D  3006               	movlw	6
  4146  0D3E  1283               	bcf	3,5	;RP0=0, select bank0
  4147  0D3F  1303               	bcf	3,6	;RP1=0, select bank0
  4148  0D40  00A7               	movwf	??_main+2
  4149  0D41  3013               	movlw	19
  4150  0D42  00A6               	movwf	??_main+1
  4151  0D43  30AD               	movlw	173
  4152  0D44  00A5               	movwf	??_main
  4153  0D45                     u3407:	
  4154  0D45  0BA5               	decfsz	??_main,f
  4155  0D46  2D45               	goto	u3407
  4156  0D47  0BA6               	decfsz	??_main+1,f
  4157  0D48  2D45               	goto	u3407
  4158  0D49  0BA7               	decfsz	??_main+2,f
  4159  0D4A  2D45               	goto	u3407
  4160                           
  4161                           ;mainbrew1double.c: 555: if(highval<=tempval)
  4162  0D4B  1283               	bcf	3,5	;RP0=0, select bank0
  4163  0D4C  1303               	bcf	3,6	;RP1=0, select bank0
  4164  0D4D  0862               	movf	_tempval+1,w
  4165  0D4E  3A80               	xorlw	128
  4166  0D4F  00A5               	movwf	??_main
  4167  0D50  0866               	movf	_highval+1,w
  4168  0D51  3A80               	xorlw	128
  4169  0D52  0225               	subwf	??_main,w
  4170  0D53  1D03               	skipz
  4171  0D54  2D57               	goto	u2405
  4172  0D55  0865               	movf	_highval,w
  4173  0D56  0261               	subwf	_tempval,w
  4174  0D57                     u2405:	
  4175  0D57  120A  118A  1C03   	skipc
  4176  0D5A  28E4               	goto	l2457
  4177                           
  4178                           ;mainbrew1double.c: 556: {
  4179                           ;mainbrew1double.c: 557: Lcd_Clear();
  4180  0D5B  120A  158A  2166  120A  158A  	fcall	_Lcd_Clear
  4181                           
  4182                           ;mainbrew1double.c: 558: Lcd_Set_Cursor(1,1);
  4183  0D60  01F4               	clrf	Lcd_Set_Cursor@b
  4184  0D61  0AF4               	incf	Lcd_Set_Cursor@b,f
  4185  0D62  3001               	movlw	1
  4186  0D63  120A  158A  23EB  120A  158A  	fcall	_Lcd_Set_Cursor
  4187                           
  4188                           ;mainbrew1double.c: 559: Lcd_Write_String("Enter high temp");
  4189  0D68  308A               	movlw	low (STR_13| (0+32768))
  4190  0D69  00F5               	movwf	Lcd_Write_String@a
  4191  0D6A  3090               	movlw	high (STR_13| (0+32768))
  4192  0D6B  00F6               	movwf	Lcd_Write_String@a+1
  4193  0D6C  120A  158A  2371  120A  158A  	fcall	_Lcd_Write_String
  4194                           
  4195                           ;mainbrew1double.c: 560: RA7 = 1;
  4196  0D71  1283               	bcf	3,5	;RP0=0, select bank0
  4197  0D72  1303               	bcf	3,6	;RP1=0, select bank0
  4198  0D73  1785               	bsf	5,7	;volatile
  4199                           
  4200                           ;mainbrew1double.c: 561: _delay((unsigned long)((200)*(4000000/4000.0)));
  4201  0D74  3002               	movlw	2
  4202  0D75  1283               	bcf	3,5	;RP0=0, select bank0
  4203  0D76  1303               	bcf	3,6	;RP1=0, select bank0
  4204  0D77  00A7               	movwf	??_main+2
  4205  0D78  3004               	movlw	4
  4206  0D79  00A6               	movwf	??_main+1
  4207  0D7A  30B9               	movlw	185
  4208  0D7B  00A5               	movwf	??_main
  4209  0D7C                     u3417:	
  4210  0D7C  0BA5               	decfsz	??_main,f
  4211  0D7D  2D7C               	goto	u3417
  4212  0D7E  0BA6               	decfsz	??_main+1,f
  4213  0D7F  2D7C               	goto	u3417
  4214  0D80  0BA7               	decfsz	??_main+2,f
  4215  0D81  2D7C               	goto	u3417
  4216  0D82  2D83               	nop2
  4217                           
  4218                           ;mainbrew1double.c: 562: RA7 = 0;
  4219  0D83  1283               	bcf	3,5	;RP0=0, select bank0
  4220  0D84  1303               	bcf	3,6	;RP1=0, select bank0
  4221  0D85  1385               	bcf	5,7	;volatile
  4222                           
  4223                           ;mainbrew1double.c: 563: _delay((unsigned long)((100)*(4000000/4000.0)));
  4224  0D86  3082               	movlw	130
  4225  0D87  1283               	bcf	3,5	;RP0=0, select bank0
  4226  0D88  1303               	bcf	3,6	;RP1=0, select bank0
  4227  0D89  00A6               	movwf	??_main+1
  4228  0D8A  30DD               	movlw	221
  4229  0D8B  00A5               	movwf	??_main
  4230  0D8C                     u3427:	
  4231  0D8C  0BA5               	decfsz	??_main,f
  4232  0D8D  2D8C               	goto	u3427
  4233  0D8E  0BA6               	decfsz	??_main+1,f
  4234  0D8F  2D8C               	goto	u3427
  4235                           
  4236                           ;mainbrew1double.c: 564: RA7 = 1;
  4237  0D90  1283               	bcf	3,5	;RP0=0, select bank0
  4238  0D91  1303               	bcf	3,6	;RP1=0, select bank0
  4239  0D92  1785               	bsf	5,7	;volatile
  4240                           
  4241                           ;mainbrew1double.c: 565: _delay((unsigned long)((200)*(4000000/4000.0)));
  4242  0D93  3002               	movlw	2
  4243  0D94  1283               	bcf	3,5	;RP0=0, select bank0
  4244  0D95  1303               	bcf	3,6	;RP1=0, select bank0
  4245  0D96  00A7               	movwf	??_main+2
  4246  0D97  3004               	movlw	4
  4247  0D98  00A6               	movwf	??_main+1
  4248  0D99  30B9               	movlw	185
  4249  0D9A  00A5               	movwf	??_main
  4250  0D9B                     u3437:	
  4251  0D9B  0BA5               	decfsz	??_main,f
  4252  0D9C  2D9B               	goto	u3437
  4253  0D9D  0BA6               	decfsz	??_main+1,f
  4254  0D9E  2D9B               	goto	u3437
  4255  0D9F  0BA7               	decfsz	??_main+2,f
  4256  0DA0  2D9B               	goto	u3437
  4257  0DA1  2DA2               	nop2
  4258                           
  4259                           ;mainbrew1double.c: 566: RA7 = 0;
  4260  0DA2  1283               	bcf	3,5	;RP0=0, select bank0
  4261  0DA3  1303               	bcf	3,6	;RP1=0, select bank0
  4262  0DA4  1385               	bcf	5,7	;volatile
  4263                           
  4264                           ;mainbrew1double.c: 567: _delay((unsigned long)((100)*(4000000/4000.0)));
  4265  0DA5  3082               	movlw	130
  4266  0DA6  1283               	bcf	3,5	;RP0=0, select bank0
  4267  0DA7  1303               	bcf	3,6	;RP1=0, select bank0
  4268  0DA8  00A6               	movwf	??_main+1
  4269  0DA9  30DD               	movlw	221
  4270  0DAA  00A5               	movwf	??_main
  4271  0DAB                     u3447:	
  4272  0DAB  0BA5               	decfsz	??_main,f
  4273  0DAC  2DAB               	goto	u3447
  4274  0DAD  0BA6               	decfsz	??_main+1,f
  4275  0DAE  2DAB               	goto	u3447
  4276                           
  4277                           ;mainbrew1double.c: 568: RA7 = 1;
  4278  0DAF  1283               	bcf	3,5	;RP0=0, select bank0
  4279  0DB0  1303               	bcf	3,6	;RP1=0, select bank0
  4280  0DB1  1785               	bsf	5,7	;volatile
  4281                           
  4282                           ;mainbrew1double.c: 569: _delay((unsigned long)((200)*(4000000/4000.0)));
  4283  0DB2  3002               	movlw	2
  4284  0DB3  1283               	bcf	3,5	;RP0=0, select bank0
  4285  0DB4  1303               	bcf	3,6	;RP1=0, select bank0
  4286  0DB5  00A7               	movwf	??_main+2
  4287  0DB6  3004               	movlw	4
  4288  0DB7  00A6               	movwf	??_main+1
  4289  0DB8  30B9               	movlw	185
  4290  0DB9  00A5               	movwf	??_main
  4291  0DBA                     u3457:	
  4292  0DBA  0BA5               	decfsz	??_main,f
  4293  0DBB  2DBA               	goto	u3457
  4294  0DBC  0BA6               	decfsz	??_main+1,f
  4295  0DBD  2DBA               	goto	u3457
  4296  0DBE  0BA7               	decfsz	??_main+2,f
  4297  0DBF  2DBA               	goto	u3457
  4298  0DC0  2DC1               	nop2
  4299                           
  4300                           ;mainbrew1double.c: 570: RA7 = 0;
  4301  0DC1  1283               	bcf	3,5	;RP0=0, select bank0
  4302  0DC2  1303               	bcf	3,6	;RP1=0, select bank0
  4303  0DC3  1385               	bcf	5,7	;volatile
  4304                           
  4305                           ;mainbrew1double.c: 571: Lcd_Clear();
  4306  0DC4  120A  158A  2166  120A  158A  	fcall	_Lcd_Clear
  4307                           
  4308                           ;mainbrew1double.c: 572: goto reval;
  4309  0DC9  2CC0               	goto	l2389
  4310                           
  4311                           	psect	maintext_split_2
  4312  00E4                     l2457:	
  4313                           
  4314                           ;mainbrew1double.c: 573: }
  4315                           ;mainbrew1double.c: 574: lowval = highval - 5;
  4316  00E4  1283               	bcf	3,5	;RP0=0, select bank0
  4317  00E5  1303               	bcf	3,6	;RP1=0, select bank0
  4318  00E6  0865               	movf	_highval,w
  4319  00E7  3EFB               	addlw	251
  4320  00E8  00E3               	movwf	_lowval
  4321  00E9  0866               	movf	_highval+1,w
  4322  00EA  1803               	skipnc
  4323  00EB  3E01               	addlw	1
  4324  00EC  3EFF               	addlw	255
  4325  00ED  00E4               	movwf	_lowval+1
  4326                           
  4327                           ;mainbrew1double.c: 575: power = 1;
  4328  00EE  3001               	movlw	1
  4329  00EF  00B2               	movwf	main@power
  4330  00F0  3000               	movlw	0
  4331  00F1  00B3               	movwf	main@power+1
  4332                           
  4333                           ;mainbrew1double.c: 576: Write_EEPROM(0,1,lowval);
  4334  00F2  01FB               	clrf	Write_EEPROM@a2
  4335  00F3  0AFB               	incf	Write_EEPROM@a2,f
  4336  00F4  0864               	movf	_lowval+1,w
  4337  00F5  00FD               	movwf	Write_EEPROM@data_value+1
  4338  00F6  0863               	movf	_lowval,w
  4339  00F7  00FC               	movwf	Write_EEPROM@data_value
  4340  00F8  3000               	movlw	0
  4341  00F9  120A  158A  2291  120A  118A  	fcall	_Write_EEPROM
  4342                           
  4343                           ;mainbrew1double.c: 577: Write_EEPROM(2,3,highval);
  4344  00FE  3003               	movlw	3
  4345  00FF  1283               	bcf	3,5	;RP0=0, select bank0
  4346  0100  1303               	bcf	3,6	;RP1=0, select bank0
  4347  0101  00A5               	movwf	??_main
  4348  0102  0825               	movf	??_main,w
  4349  0103  00FB               	movwf	Write_EEPROM@a2
  4350  0104  0866               	movf	_highval+1,w
  4351  0105  00FD               	movwf	Write_EEPROM@data_value+1
  4352  0106  0865               	movf	_highval,w
  4353  0107  00FC               	movwf	Write_EEPROM@data_value
  4354  0108  3002               	movlw	2
  4355  0109  120A  158A  2291  120A  118A  	fcall	_Write_EEPROM
  4356                           
  4357                           ;mainbrew1double.c: 578: Write_EEPROM(4,5,power);
  4358  010E  3005               	movlw	5
  4359  010F  1283               	bcf	3,5	;RP0=0, select bank0
  4360  0110  1303               	bcf	3,6	;RP1=0, select bank0
  4361  0111  00A5               	movwf	??_main
  4362  0112  0825               	movf	??_main,w
  4363  0113  00FB               	movwf	Write_EEPROM@a2
  4364  0114  0833               	movf	main@power+1,w
  4365  0115  00FD               	movwf	Write_EEPROM@data_value+1
  4366  0116  0832               	movf	main@power,w
  4367  0117  00FC               	movwf	Write_EEPROM@data_value
  4368  0118  3004               	movlw	4
  4369  0119  120A  158A  2291  120A  118A  	fcall	_Write_EEPROM
  4370                           
  4371                           ;mainbrew1double.c: 579: startval = highval;
  4372  011E  1283               	bcf	3,5	;RP0=0, select bank0
  4373  011F  1303               	bcf	3,6	;RP1=0, select bank0
  4374  0120  0866               	movf	_highval+1,w
  4375  0121  00E0               	movwf	_startval+1
  4376  0122  0865               	movf	_highval,w
  4377  0123  00DF               	movwf	_startval
  4378                           
  4379                           ;mainbrew1double.c: 580: j = 1;
  4380  0124  3001               	movlw	1
  4381  0125  00B4               	movwf	main@j
  4382  0126  3000               	movlw	0
  4383  0127  00B5               	movwf	main@j+1
  4384  0128                     l2471:	
  4385                           ;mainbrew1double.c: 581: break;
  4386                           
  4387                           
  4388                           ;mainbrew1double.c: 583: }
  4389                           ;mainbrew1double.c: 585: }
  4390                           ;mainbrew1double.c: 587: }
  4391                           ;mainbrew1double.c: 588: if(j==1)
  4392  0128  0334               	decf	main@j,w
  4393  0129  0435               	iorwf	main@j+1,w
  4394  012A  1D03               	btfss	3,2
  4395  012B  299F               	goto	l2493
  4396  012C                     l2473:	
  4397                           ;mainbrew1double.c: 589: {
  4398                           ;mainbrew1double.c: 590: ready:
  4399                           
  4400                           
  4401                           ;mainbrew1double.c: 591: Lcd_Clear();
  4402  012C  120A  158A  2166  120A  118A  	fcall	_Lcd_Clear
  4403  0131                     l231:	
  4404                           ;mainbrew1double.c: 593: while(1)
  4405                           
  4406                           
  4407                           ;mainbrew1double.c: 594: { Lcd_Set_Cursor(1,2);
  4408  0131  3002               	movlw	2
  4409  0132  1283               	bcf	3,5	;RP0=0, select bank0
  4410  0133  1303               	bcf	3,6	;RP1=0, select bank0
  4411  0134  00A5               	movwf	??_main
  4412  0135  0825               	movf	??_main,w
  4413  0136  00F4               	movwf	Lcd_Set_Cursor@b
  4414  0137  3001               	movlw	1
  4415  0138  120A  158A  23EB  120A  118A  	fcall	_Lcd_Set_Cursor
  4416                           
  4417                           ;mainbrew1double.c: 595: Lcd_Write_String("* BREWMASTER *");
  4418  013D  309A               	movlw	low (STR_14| (0+32768))
  4419  013E  00F5               	movwf	Lcd_Write_String@a
  4420  013F  3090               	movlw	high (STR_14| (0+32768))
  4421  0140  00F6               	movwf	Lcd_Write_String@a+1
  4422  0141  120A  158A  2371  120A  118A  	fcall	_Lcd_Write_String
  4423                           
  4424                           ;mainbrew1double.c: 596: Lcd_Set_Cursor(2,6);
  4425  0146  3006               	movlw	6
  4426  0147  1283               	bcf	3,5	;RP0=0, select bank0
  4427  0148  1303               	bcf	3,6	;RP1=0, select bank0
  4428  0149  00A5               	movwf	??_main
  4429  014A  0825               	movf	??_main,w
  4430  014B  00F4               	movwf	Lcd_Set_Cursor@b
  4431  014C  3002               	movlw	2
  4432  014D  120A  158A  23EB  120A  118A  	fcall	_Lcd_Set_Cursor
  4433                           
  4434                           ;mainbrew1double.c: 597: Lcd_Write_String("READY...");
  4435  0152  304F               	movlw	low (STR_15| (0+32768))
  4436  0153  00F5               	movwf	Lcd_Write_String@a
  4437  0154  3091               	movlw	high (STR_15| (0+32768))
  4438  0155  00F6               	movwf	Lcd_Write_String@a+1
  4439  0156  120A  158A  2371  120A  118A  	fcall	_Lcd_Write_String
  4440                           
  4441                           ;mainbrew1double.c: 598: current=Read_EEPROM(6,7);
  4442  015B  3007               	movlw	7
  4443  015C  1283               	bcf	3,5	;RP0=0, select bank0
  4444  015D  1303               	bcf	3,6	;RP1=0, select bank0
  4445  015E  00A5               	movwf	??_main
  4446  015F  0825               	movf	??_main,w
  4447  0160  00F6               	movwf	Read_EEPROM@b2
  4448  0161  3006               	movlw	6
  4449  0162  120A  158A  22FC  120A  118A  	fcall	_Read_EEPROM
  4450  0167  0876               	movf	?_Read_EEPROM,w
  4451  0168  1283               	bcf	3,5	;RP0=0, select bank0
  4452  0169  1303               	bcf	3,6	;RP1=0, select bank0
  4453  016A  00A6               	movwf	??_main+1
  4454  016B  0826               	movf	??_main+1,w
  4455  016C  00C3               	movwf	main@current
  4456                           
  4457                           ;mainbrew1double.c: 600: if(!RA0)
  4458  016D  1805               	btfsc	5,0	;volatile
  4459  016E  2972               	goto	l232
  4460  016F                     l233:	
  4461                           ;mainbrew1double.c: 601: {
  4462                           ;mainbrew1double.c: 602: while(!RA0);
  4463                           
  4464  016F  1805               	btfsc	5,0	;volatile
  4465  0170  2CEB               	goto	L10
  4466  0171  296F               	goto	l233
  4467  0172                     l232:	
  4468                           ;mainbrew1double.c: 603: goto start;
  4469                           
  4470                           
  4471                           ;mainbrew1double.c: 604: }
  4472                           ;mainbrew1double.c: 605: if(!RB4)
  4473  0172  1A06               	btfsc	6,4	;volatile
  4474  0173  2931               	goto	l231
  4475  0174                     l237:	
  4476                           ;mainbrew1double.c: 606: {
  4477                           ;mainbrew1double.c: 607: while(!RB4);
  4478                           
  4479  0174  1E06               	btfss	6,4	;volatile
  4480  0175  2974               	goto	l237
  4481                           
  4482                           ;mainbrew1double.c: 608: if(pumpfail == 1)
  4483  0176  0369               	decf	_pumpfail,w
  4484  0177  1D03               	btfss	3,2
  4485  0178  297B               	goto	l2491
  4486                           
  4487                           ;mainbrew1double.c: 609: {
  4488                           ;mainbrew1double.c: 610: RC0 = 1;
  4489  0179  1407               	bsf	7,0	;volatile
  4490                           
  4491                           ;mainbrew1double.c: 611: RA1 = 1;
  4492  017A  1485               	bsf	5,1	;volatile
  4493  017B                     l2491:	
  4494                           
  4495                           ;mainbrew1double.c: 612: }
  4496                           ;mainbrew1double.c: 613: Lcd_Clear();
  4497  017B  120A  158A  2166  120A  118A  	fcall	_Lcd_Clear
  4498                           
  4499                           ;mainbrew1double.c: 614: powerval=Read_EEPROM(4,5);
  4500  0180  3005               	movlw	5
  4501  0181  1283               	bcf	3,5	;RP0=0, select bank0
  4502  0182  1303               	bcf	3,6	;RP1=0, select bank0
  4503  0183  00A5               	movwf	??_main
  4504  0184  0825               	movf	??_main,w
  4505  0185  00F6               	movwf	Read_EEPROM@b2
  4506  0186  3004               	movlw	4
  4507  0187  120A  158A  22FC  120A  118A  	fcall	_Read_EEPROM
  4508  018C  0877               	movf	?_Read_EEPROM+1,w
  4509  018D  1283               	bcf	3,5	;RP0=0, select bank0
  4510  018E  1303               	bcf	3,6	;RP1=0, select bank0
  4511  018F  00C7               	movwf	main@powerval+1
  4512  0190  0876               	movf	?_Read_EEPROM,w
  4513  0191  00C6               	movwf	main@powerval
  4514                           
  4515                           ;mainbrew1double.c: 615: Write_EEPROM(6,7,0);
  4516  0192  3007               	movlw	7
  4517  0193  00A5               	movwf	??_main
  4518  0194  0825               	movf	??_main,w
  4519  0195  00FB               	movwf	Write_EEPROM@a2
  4520  0196  3000               	movlw	0
  4521  0197  00FC               	movwf	Write_EEPROM@data_value
  4522  0198  00FD               	movwf	Write_EEPROM@data_value+1
  4523  0199  3006               	movlw	6
  4524  019A  120A  158A  2291  120A  118A  	fcall	_Write_EEPROM
  4525  019F                     l2493:	
  4526                           ;mainbrew1double.c: 616: break;
  4527                           
  4528                           
  4529                           ;mainbrew1double.c: 617: }
  4530                           ;mainbrew1double.c: 620: }
  4531                           ;mainbrew1double.c: 621: }
  4532                           ;mainbrew1double.c: 622: current=Read_EEPROM(6,7);
  4533  019F  3007               	movlw	7
  4534  01A0  1283               	bcf	3,5	;RP0=0, select bank0
  4535  01A1  1303               	bcf	3,6	;RP1=0, select bank0
  4536  01A2  00A5               	movwf	??_main
  4537  01A3  0825               	movf	??_main,w
  4538  01A4  00F6               	movwf	Read_EEPROM@b2
  4539  01A5  3006               	movlw	6
  4540  01A6  120A  158A  22FC  120A  118A  	fcall	_Read_EEPROM
  4541  01AB  0876               	movf	?_Read_EEPROM,w
  4542  01AC  1283               	bcf	3,5	;RP0=0, select bank0
  4543  01AD  1303               	bcf	3,6	;RP1=0, select bank0
  4544  01AE  00A6               	movwf	??_main+1
  4545  01AF  0826               	movf	??_main+1,w
  4546  01B0  00C3               	movwf	main@current
  4547                           
  4548                           ;mainbrew1double.c: 623: if((powerval == 1)&&(current == 1))
  4549  01B1  0346               	decf	main@powerval,w
  4550  01B2  0447               	iorwf	main@powerval+1,w
  4551  01B3  1903               	btfsc	3,2
  4552  01B4  0343               	decf	main@current,w
  4553  01B5  1903               	btfsc	3,2
  4554  01B6  292C               	goto	l2473
  4555                           
  4556                           ;mainbrew1double.c: 626: }
  4557                           ;mainbrew1double.c: 627: if((powerval == 1)&&(current == 0))
  4558                           
  4559                           ;mainbrew1double.c: 624: {
  4560                           ;mainbrew1double.c: 625: goto ready;
  4561  01B7  0346               	decf	main@powerval,w
  4562  01B8  0447               	iorwf	main@powerval+1,w
  4563  01B9  1D03               	btfss	3,2
  4564  01BA  2CF7               	goto	l2747
  4565  01BB  0843               	movf	main@current,w
  4566  01BC  1D03               	btfss	3,2
  4567  01BD  2CF7               	goto	l2747
  4568  01BE                     l2505:	
  4569                           ;mainbrew1double.c: 628: {
  4570                           ;mainbrew1double.c: 629: temp:
  4571                           
  4572                           
  4573                           ;mainbrew1double.c: 630: lowval=Read_EEPROM(0,1);
  4574  01BE  01F6               	clrf	Read_EEPROM@b2
  4575  01BF  0AF6               	incf	Read_EEPROM@b2,f
  4576  01C0  3000               	movlw	0
  4577  01C1  120A  158A  22FC  120A  118A  	fcall	_Read_EEPROM
  4578  01C6  0877               	movf	?_Read_EEPROM+1,w
  4579  01C7  1283               	bcf	3,5	;RP0=0, select bank0
  4580  01C8  1303               	bcf	3,6	;RP1=0, select bank0
  4581  01C9  00E4               	movwf	_lowval+1
  4582  01CA  0876               	movf	?_Read_EEPROM,w
  4583  01CB  00E3               	movwf	_lowval
  4584                           
  4585                           ;mainbrew1double.c: 631: highval=Read_EEPROM(2,3);
  4586  01CC  3003               	movlw	3
  4587  01CD  00A5               	movwf	??_main
  4588  01CE  0825               	movf	??_main,w
  4589  01CF  00F6               	movwf	Read_EEPROM@b2
  4590  01D0  3002               	movlw	2
  4591  01D1  120A  158A  22FC  120A  118A  	fcall	_Read_EEPROM
  4592  01D6  0877               	movf	?_Read_EEPROM+1,w
  4593  01D7  1283               	bcf	3,5	;RP0=0, select bank0
  4594  01D8  1303               	bcf	3,6	;RP1=0, select bank0
  4595  01D9  00E6               	movwf	_highval+1
  4596  01DA  0876               	movf	?_Read_EEPROM,w
  4597  01DB  00E5               	movwf	_highval
  4598  01DC                     l2507:	
  4599                           ;mainbrew1double.c: 634: intwater:
  4600                           
  4601                           
  4602                           ;mainbrew1double.c: 635: if(RC7)
  4603  01DC  1B87               	btfsc	7,7	;volatile
  4604  01DD  2C2C               	goto	l2509
  4605  01DE  2E2E               	goto	l2843
  4606  01DF                     l2517:	
  4607                           
  4608                           ;mainbrew1double.c: 642: {
  4609                           ;mainbrew1double.c: 643: if(tempval>=highval)
  4610  01DF  1283               	bcf	3,5	;RP0=0, select bank0
  4611  01E0  1303               	bcf	3,6	;RP1=0, select bank0
  4612  01E1  0862               	movf	_tempval+1,w
  4613  01E2  3A80               	xorlw	128
  4614  01E3  00A5               	movwf	??_main
  4615  01E4  0866               	movf	_highval+1,w
  4616  01E5  3A80               	xorlw	128
  4617  01E6  0225               	subwf	??_main,w
  4618  01E7  1D03               	skipz
  4619  01E8  29EB               	goto	u2535
  4620  01E9  0865               	movf	_highval,w
  4621  01EA  0261               	subwf	_tempval,w
  4622  01EB                     u2535:	
  4623  01EB  1C03               	skipc
  4624  01EC  2A7B               	goto	l2561
  4625                           
  4626                           ;mainbrew1double.c: 644: {
  4627                           ;mainbrew1double.c: 645: flag7 = 1;
  4628  01ED  3001               	movlw	1
  4629  01EE  1283               	bcf	3,5	;RP0=0, select bank0
  4630  01EF  1303               	bcf	3,6	;RP1=0, select bank0
  4631  01F0  00CD               	movwf	_flag7
  4632  01F1  3000               	movlw	0
  4633  01F2  00CE               	movwf	_flag7+1
  4634                           
  4635                           ;mainbrew1double.c: 646: int tempflag2 = 0;
  4636  01F3  01B6               	clrf	main@tempflag2
  4637  01F4  01B7               	clrf	main@tempflag2+1
  4638                           
  4639                           ;mainbrew1double.c: 647: int checkte ;
  4640                           ;mainbrew1double.c: 648: int tempvalhigh;
  4641                           ;mainbrew1double.c: 649: tempvalhigh = highval+3;
  4642  01F5  0865               	movf	_highval,w
  4643  01F6  3E03               	addlw	3
  4644  01F7  00B9               	movwf	main@tempvalhigh
  4645  01F8  0866               	movf	_highval+1,w
  4646  01F9  1803               	skipnc
  4647  01FA  3E01               	addlw	1
  4648  01FB  3E00               	addlw	0
  4649  01FC  00BA               	movwf	main@tempvalhigh+1
  4650                           
  4651                           ;mainbrew1double.c: 650: if(flag5 == 0)
  4652  01FD  0851               	movf	_flag5,w
  4653  01FE  0452               	iorwf	_flag5+1,w
  4654  01FF  1D03               	btfss	3,2
  4655  0200  2A08               	goto	l2533
  4656                           
  4657                           ;mainbrew1double.c: 651: {
  4658                           ;mainbrew1double.c: 652: flag1 = 0;
  4659  0201  01D7               	clrf	_flag1
  4660  0202  01D8               	clrf	_flag1+1
  4661                           
  4662                           ;mainbrew1double.c: 653: flag2 = 1;
  4663  0203  3001               	movlw	1
  4664  0204  00D5               	movwf	_flag2
  4665  0205  3000               	movlw	0
  4666  0206  00D6               	movwf	_flag2+1
  4667                           
  4668                           ;mainbrew1double.c: 654: goto beep;
  4669  0207  2C92               	goto	l2707
  4670  0208                     l2533:	
  4671                           ;mainbrew1double.c: 655: }
  4672                           
  4673                           
  4674                           ;mainbrew1double.c: 656: else if(tempvalhigh<=tempval)
  4675  0208  0862               	movf	_tempval+1,w
  4676  0209  3A80               	xorlw	128
  4677  020A  00A5               	movwf	??_main
  4678  020B  083A               	movf	main@tempvalhigh+1,w
  4679  020C  3A80               	xorlw	128
  4680  020D  0225               	subwf	??_main,w
  4681  020E  1D03               	skipz
  4682  020F  2A12               	goto	u2555
  4683  0210  0839               	movf	main@tempvalhigh,w
  4684  0211  0261               	subwf	_tempval,w
  4685  0212                     u2555:	
  4686  0212  1C03               	skipc
  4687  0213  2A1A               	goto	l2537
  4688                           
  4689                           ;mainbrew1double.c: 657: {
  4690                           ;mainbrew1double.c: 658: tempflag2 = 1;
  4691  0214  3001               	movlw	1
  4692  0215  1283               	bcf	3,5	;RP0=0, select bank0
  4693  0216  1303               	bcf	3,6	;RP1=0, select bank0
  4694  0217  00B6               	movwf	main@tempflag2
  4695  0218  3000               	movlw	0
  4696  0219  00B7               	movwf	main@tempflag2+1
  4697  021A                     l2537:	
  4698                           
  4699                           ;mainbrew1double.c: 659: }
  4700                           ;mainbrew1double.c: 660: if(tempflag2 == 1)
  4701  021A  1283               	bcf	3,5	;RP0=0, select bank0
  4702  021B  1303               	bcf	3,6	;RP1=0, select bank0
  4703  021C  0336               	decf	main@tempflag2,w
  4704  021D  0437               	iorwf	main@tempflag2+1,w
  4705  021E  1D03               	btfss	3,2
  4706  021F  2A7B               	goto	l2561
  4707                           
  4708                           ;mainbrew1double.c: 661: {
  4709                           ;mainbrew1double.c: 662: Lcd_Clear();
  4710  0220  120A  158A  2166  120A  118A  	fcall	_Lcd_Clear
  4711  0225                     l2541:	
  4712                           ;mainbrew1double.c: 663: while(1)
  4713                           
  4714                           
  4715                           ;mainbrew1double.c: 664: {
  4716                           ;mainbrew1double.c: 665: tempflag2 = 0;
  4717  0225  1283               	bcf	3,5	;RP0=0, select bank0
  4718  0226  1303               	bcf	3,6	;RP1=0, select bank0
  4719  0227  01B6               	clrf	main@tempflag2
  4720  0228  01B7               	clrf	main@tempflag2+1
  4721                           
  4722                           ;mainbrew1double.c: 666: Lcd_Set_Cursor(1,1);
  4723  0229  01F4               	clrf	Lcd_Set_Cursor@b
  4724  022A  0AF4               	incf	Lcd_Set_Cursor@b,f
  4725  022B  3001               	movlw	1
  4726  022C  120A  158A  23EB  120A  118A  	fcall	_Lcd_Set_Cursor
  4727                           
  4728                           ;mainbrew1double.c: 667: Lcd_Write_String("High Temperature");
  4729  0231  3059               	movlw	low (STR_16| (0+32768))
  4730  0232  00F5               	movwf	Lcd_Write_String@a
  4731  0233  3090               	movlw	high (STR_16| (0+32768))
  4732  0234  00F6               	movwf	Lcd_Write_String@a+1
  4733  0235  120A  158A  2371  120A  118A  	fcall	_Lcd_Write_String
  4734                           
  4735                           ;mainbrew1double.c: 668: RA7 = 1;
  4736  023A  1283               	bcf	3,5	;RP0=0, select bank0
  4737  023B  1303               	bcf	3,6	;RP1=0, select bank0
  4738  023C  1785               	bsf	5,7	;volatile
  4739                           
  4740                           ;mainbrew1double.c: 669: _delay((unsigned long)((300)*(4000000/4000.0)));
  4741  023D  3002               	movlw	2
  4742  023E  1283               	bcf	3,5	;RP0=0, select bank0
  4743  023F  1303               	bcf	3,6	;RP1=0, select bank0
  4744  0240  00A7               	movwf	??_main+2
  4745  0241  3086               	movlw	134
  4746  0242  00A6               	movwf	??_main+1
  4747  0243  3098               	movlw	152
  4748  0244  00A5               	movwf	??_main
  4749  0245                     u3467:	
  4750  0245  0BA5               	decfsz	??_main,f
  4751  0246  2A45               	goto	u3467
  4752  0247  0BA6               	decfsz	??_main+1,f
  4753  0248  2A45               	goto	u3467
  4754  0249  0BA7               	decfsz	??_main+2,f
  4755  024A  2A45               	goto	u3467
  4756  024B  0000               	nop
  4757                           
  4758                           ;mainbrew1double.c: 670: RA7 = 0;
  4759  024C  1283               	bcf	3,5	;RP0=0, select bank0
  4760  024D  1303               	bcf	3,6	;RP1=0, select bank0
  4761  024E  1385               	bcf	5,7	;volatile
  4762                           
  4763                           ;mainbrew1double.c: 671: checkte = checktemp();
  4764  024F  120A  118A  2085  120A  118A  	fcall	_checktemp
  4765  0254  0875               	movf	?_checktemp+1,w
  4766  0255  1283               	bcf	3,5	;RP0=0, select bank0
  4767  0256  1303               	bcf	3,6	;RP1=0, select bank0
  4768  0257  00B1               	movwf	main@checkte+1
  4769  0258  0874               	movf	?_checktemp,w
  4770  0259  00B0               	movwf	main@checkte
  4771                           
  4772                           ;mainbrew1double.c: 672: _delay((unsigned long)((500)*(4000000/4000.0)));
  4773  025A  3003               	movlw	3
  4774  025B  1283               	bcf	3,5	;RP0=0, select bank0
  4775  025C  1303               	bcf	3,6	;RP1=0, select bank0
  4776  025D  00A7               	movwf	??_main+2
  4777  025E  308A               	movlw	138
  4778  025F  00A6               	movwf	??_main+1
  4779  0260  3055               	movlw	85
  4780  0261  00A5               	movwf	??_main
  4781  0262                     u3477:	
  4782  0262  0BA5               	decfsz	??_main,f
  4783  0263  2A62               	goto	u3477
  4784  0264  0BA6               	decfsz	??_main+1,f
  4785  0265  2A62               	goto	u3477
  4786  0266  0BA7               	decfsz	??_main+2,f
  4787  0267  2A62               	goto	u3477
  4788                           
  4789                           ;mainbrew1double.c: 673: if(tempvalhigh>checkte)
  4790  0268  1283               	bcf	3,5	;RP0=0, select bank0
  4791  0269  1303               	bcf	3,6	;RP1=0, select bank0
  4792  026A  0831               	movf	main@checkte+1,w
  4793  026B  3A80               	xorlw	128
  4794  026C  00A5               	movwf	??_main
  4795  026D  083A               	movf	main@tempvalhigh+1,w
  4796  026E  3A80               	xorlw	128
  4797  026F  0225               	subwf	??_main,w
  4798  0270  1D03               	skipz
  4799  0271  2A74               	goto	u2575
  4800  0272  0839               	movf	main@tempvalhigh,w
  4801  0273  0230               	subwf	main@checkte,w
  4802  0274                     u2575:	
  4803  0274  1803               	skipnc
  4804  0275  2A25               	goto	l2541
  4805                           
  4806                           ;mainbrew1double.c: 674: {
  4807                           ;mainbrew1double.c: 675: Lcd_Clear();
  4808  0276  120A  158A  2166  120A  118A  	fcall	_Lcd_Clear
  4809  027B                     l2561:	
  4810                           ;mainbrew1double.c: 677: }
  4811                           ;mainbrew1double.c: 678: }
  4812                           ;mainbrew1double.c: 679: }
  4813                           ;mainbrew1double.c: 680: }
  4814                           ;mainbrew1double.c: 681: nxt:
  4815                           
  4816                           ;mainbrew1double.c: 676: goto nxt;
  4817                           
  4818                           
  4819                           ;mainbrew1double.c: 682: tempflag1 = 0;
  4820  027B  1283               	bcf	3,5	;RP0=0, select bank0
  4821  027C  1303               	bcf	3,6	;RP1=0, select bank0
  4822  027D  01AE               	clrf	main@tempflag1
  4823  027E  01AF               	clrf	main@tempflag1+1
  4824                           
  4825                           ;mainbrew1double.c: 683: Lcd_Set_Cursor(1,16);
  4826  027F  3010               	movlw	16
  4827  0280  00A5               	movwf	??_main
  4828  0281  0825               	movf	??_main,w
  4829  0282  00F4               	movwf	Lcd_Set_Cursor@b
  4830  0283  3001               	movlw	1
  4831  0284  120A  158A  23EB  120A  118A  	fcall	_Lcd_Set_Cursor
  4832                           
  4833                           ;mainbrew1double.c: 684: Lcd_Write_String(" ");
  4834  0289  3024               	movlw	low ((STR_23+16)| (0+32768))
  4835  028A  00F5               	movwf	Lcd_Write_String@a
  4836  028B  3090               	movlw	high ((STR_23+16)| (0+32768))
  4837  028C  00F6               	movwf	Lcd_Write_String@a+1
  4838  028D  120A  158A  2371  120A  118A  	fcall	_Lcd_Write_String
  4839                           
  4840                           ;mainbrew1double.c: 685: Lcd_Set_Cursor(1,2);
  4841  0292  3002               	movlw	2
  4842  0293  1283               	bcf	3,5	;RP0=0, select bank0
  4843  0294  1303               	bcf	3,6	;RP1=0, select bank0
  4844  0295  00A5               	movwf	??_main
  4845  0296  0825               	movf	??_main,w
  4846  0297  00F4               	movwf	Lcd_Set_Cursor@b
  4847  0298  3001               	movlw	1
  4848  0299  120A  158A  23EB  120A  118A  	fcall	_Lcd_Set_Cursor
  4849                           
  4850                           ;mainbrew1double.c: 686: Lcd_Write_String("TEMPERATURE ");
  4851  029E  30F2               	movlw	low (STR_18| (0+32768))
  4852  029F  00F5               	movwf	Lcd_Write_String@a
  4853  02A0  3090               	movlw	high (STR_18| (0+32768))
  4854  02A1  00F6               	movwf	Lcd_Write_String@a+1
  4855  02A2  120A  158A  2371  120A  118A  	fcall	_Lcd_Write_String
  4856                           
  4857                           ;mainbrew1double.c: 687: Lcd_Write_Char(0xdf);
  4858  02A7  30DF               	movlw	223
  4859  02A8  120A  158A  22C5  120A  118A  	fcall	_Lcd_Write_Char
  4860                           
  4861                           ;mainbrew1double.c: 688: Lcd_Set_Cursor(1,15);
  4862  02AD  300F               	movlw	15
  4863  02AE  1283               	bcf	3,5	;RP0=0, select bank0
  4864  02AF  1303               	bcf	3,6	;RP1=0, select bank0
  4865  02B0  00A5               	movwf	??_main
  4866  02B1  0825               	movf	??_main,w
  4867  02B2  00F4               	movwf	Lcd_Set_Cursor@b
  4868  02B3  3001               	movlw	1
  4869  02B4  120A  158A  23EB  120A  118A  	fcall	_Lcd_Set_Cursor
  4870                           
  4871                           ;mainbrew1double.c: 689: Lcd_Write_String("C");
  4872  02B9  3076               	movlw	low (STR_19| (0+32768))
  4873  02BA  00F5               	movwf	Lcd_Write_String@a
  4874  02BB  3091               	movlw	high (STR_19| (0+32768))
  4875  02BC  00F6               	movwf	Lcd_Write_String@a+1
  4876  02BD  120A  158A  2371  120A  118A  	fcall	_Lcd_Write_String
  4877                           
  4878                           ;mainbrew1double.c: 690: Lcd_Set_Cursor(2,1);
  4879  02C2  01F4               	clrf	Lcd_Set_Cursor@b
  4880  02C3  0AF4               	incf	Lcd_Set_Cursor@b,f
  4881  02C4  3002               	movlw	2
  4882  02C5  120A  158A  23EB  120A  118A  	fcall	_Lcd_Set_Cursor
  4883                           
  4884                           ;mainbrew1double.c: 691: Lcd_Write_String("SET:");
  4885  02CA  306A               	movlw	low (STR_20| (0+32768))
  4886  02CB  00F5               	movwf	Lcd_Write_String@a
  4887  02CC  3091               	movlw	high (STR_20| (0+32768))
  4888  02CD  00F6               	movwf	Lcd_Write_String@a+1
  4889  02CE  120A  158A  2371  120A  118A  	fcall	_Lcd_Write_String
  4890                           
  4891                           ;mainbrew1double.c: 692: Lcd_Set_Cursor(2,5);
  4892  02D3  3005               	movlw	5
  4893  02D4  1283               	bcf	3,5	;RP0=0, select bank0
  4894  02D5  1303               	bcf	3,6	;RP1=0, select bank0
  4895  02D6  00A5               	movwf	??_main
  4896  02D7  0825               	movf	??_main,w
  4897  02D8  00F4               	movwf	Lcd_Set_Cursor@b
  4898  02D9  3002               	movlw	2
  4899  02DA  120A  158A  23EB  120A  118A  	fcall	_Lcd_Set_Cursor
  4900                           
  4901                           ;mainbrew1double.c: 693: lcddisplay(highval);
  4902  02DF  1283               	bcf	3,5	;RP0=0, select bank0
  4903  02E0  1303               	bcf	3,6	;RP1=0, select bank0
  4904  02E1  0866               	movf	_highval+1,w
  4905  02E2  00F9               	movwf	lcddisplay@num+1
  4906  02E3  0865               	movf	_highval,w
  4907  02E4  00F8               	movwf	lcddisplay@num
  4908  02E5  120A  118A  2003  120A  118A  	fcall	_lcddisplay
  4909                           
  4910                           ;mainbrew1double.c: 694: Lcd_Set_Cursor(2,7);
  4911  02EA  3007               	movlw	7
  4912  02EB  1283               	bcf	3,5	;RP0=0, select bank0
  4913  02EC  1303               	bcf	3,6	;RP1=0, select bank0
  4914  02ED  00A5               	movwf	??_main
  4915  02EE  0825               	movf	??_main,w
  4916  02EF  00F4               	movwf	Lcd_Set_Cursor@b
  4917  02F0  3002               	movlw	2
  4918  02F1  120A  158A  23EB  120A  118A  	fcall	_Lcd_Set_Cursor
  4919                           
  4920                           ;mainbrew1double.c: 695: Lcd_Write_String(" ACTUAL:");
  4921  02F6  3058               	movlw	low (STR_21| (0+32768))
  4922  02F7  00F5               	movwf	Lcd_Write_String@a
  4923  02F8  3091               	movlw	high (STR_21| (0+32768))
  4924  02F9  00F6               	movwf	Lcd_Write_String@a+1
  4925  02FA  120A  158A  2371  120A  118A  	fcall	_Lcd_Write_String
  4926                           
  4927                           ;mainbrew1double.c: 696: Lcd_Set_Cursor(2,15);
  4928  02FF  300F               	movlw	15
  4929  0300  1283               	bcf	3,5	;RP0=0, select bank0
  4930  0301  1303               	bcf	3,6	;RP1=0, select bank0
  4931  0302  00A5               	movwf	??_main
  4932  0303  0825               	movf	??_main,w
  4933  0304  00F4               	movwf	Lcd_Set_Cursor@b
  4934  0305  3002               	movlw	2
  4935  0306  120A  158A  23EB  120A  118A  	fcall	_Lcd_Set_Cursor
  4936                           
  4937                           ;mainbrew1double.c: 697: lcddisplay(tempval);
  4938  030B  1283               	bcf	3,5	;RP0=0, select bank0
  4939  030C  1303               	bcf	3,6	;RP1=0, select bank0
  4940  030D  0862               	movf	_tempval+1,w
  4941  030E  00F9               	movwf	lcddisplay@num+1
  4942  030F  0861               	movf	_tempval,w
  4943  0310  00F8               	movwf	lcddisplay@num
  4944  0311  120A  118A  2003  120A  118A  	fcall	_lcddisplay
  4945                           
  4946                           ;mainbrew1double.c: 698: if(startval>=tempval)
  4947  0316  1283               	bcf	3,5	;RP0=0, select bank0
  4948  0317  1303               	bcf	3,6	;RP1=0, select bank0
  4949  0318  0860               	movf	_startval+1,w
  4950  0319  3A80               	xorlw	128
  4951  031A  00A5               	movwf	??_main
  4952  031B  0862               	movf	_tempval+1,w
  4953  031C  3A80               	xorlw	128
  4954  031D  0225               	subwf	??_main,w
  4955  031E  1D03               	skipz
  4956  031F  2B22               	goto	u2585
  4957  0320  0861               	movf	_tempval,w
  4958  0321  025F               	subwf	_startval,w
  4959  0322                     u2585:	
  4960  0322  1C03               	skipc
  4961  0323  2B2D               	goto	l2601
  4962                           
  4963                           ;mainbrew1double.c: 699: {
  4964                           ;mainbrew1double.c: 700: if(flag4 == 0)
  4965  0324  1283               	bcf	3,5	;RP0=0, select bank0
  4966  0325  1303               	bcf	3,6	;RP1=0, select bank0
  4967  0326  0853               	movf	_flag4,w
  4968  0327  0454               	iorwf	_flag4+1,w
  4969  0328  1D03               	btfss	3,2
  4970  0329  2B2D               	goto	l2601
  4971                           
  4972                           ;mainbrew1double.c: 701: {
  4973                           ;mainbrew1double.c: 702: startval = 0;
  4974  032A  01DF               	clrf	_startval
  4975  032B  01E0               	clrf	_startval+1
  4976  032C  2B41               	goto	l2605
  4977  032D                     l2601:	
  4978                           ;mainbrew1double.c: 704: goto beep;
  4979                           
  4980                           ;mainbrew1double.c: 703: flag1 = 1;
  4981                           
  4982                           
  4983                           ;mainbrew1double.c: 705: }
  4984                           ;mainbrew1double.c: 706: }
  4985                           ;mainbrew1double.c: 708: if(tempval<=lowval)
  4986  032D  1283               	bcf	3,5	;RP0=0, select bank0
  4987  032E  1303               	bcf	3,6	;RP1=0, select bank0
  4988  032F  0864               	movf	_lowval+1,w
  4989  0330  3A80               	xorlw	128
  4990  0331  00A5               	movwf	??_main
  4991  0332  0862               	movf	_tempval+1,w
  4992  0333  3A80               	xorlw	128
  4993  0334  0225               	subwf	??_main,w
  4994  0335  1D03               	skipz
  4995  0336  2B39               	goto	u2605
  4996  0337  0861               	movf	_tempval,w
  4997  0338  0263               	subwf	_lowval,w
  4998  0339                     u2605:	
  4999  0339  1C03               	skipc
  5000  033A  2B46               	goto	l2607
  5001                           
  5002                           ;mainbrew1double.c: 709: {
  5003                           ;mainbrew1double.c: 710: if(flag4 == 0)
  5004  033B  1283               	bcf	3,5	;RP0=0, select bank0
  5005  033C  1303               	bcf	3,6	;RP1=0, select bank0
  5006  033D  0853               	movf	_flag4,w
  5007  033E  0454               	iorwf	_flag4+1,w
  5008  033F  1D03               	btfss	3,2
  5009  0340  2B46               	goto	l2607
  5010  0341                     l2605:	
  5011                           
  5012                           ;mainbrew1double.c: 711: {
  5013                           ;mainbrew1double.c: 712: flag1 = 1;
  5014  0341  3001               	movlw	1
  5015  0342  00D7               	movwf	_flag1
  5016  0343  3000               	movlw	0
  5017  0344  00D8               	movwf	_flag1+1
  5018                           
  5019                           ;mainbrew1double.c: 713: goto beep;
  5020  0345  2C92               	goto	l2707
  5021  0346                     l2607:	
  5022                           
  5023                           ;mainbrew1double.c: 714: }
  5024                           ;mainbrew1double.c: 716: }
  5025                           ;mainbrew1double.c: 718: for(int l=0;l<=1000;l++)
  5026  0346  1283               	bcf	3,5	;RP0=0, select bank0
  5027  0347  1303               	bcf	3,6	;RP1=0, select bank0
  5028  0348  01BB               	clrf	main@l
  5029  0349  01BC               	clrf	main@l+1
  5030  034A                     L4:	
  5031  034A  083C               	movf	main@l+1,w
  5032  034B  3A80               	xorlw	128
  5033  034C  00FF               	movwf	127
  5034  034D  3083               	movlw	131
  5035  034E  027F               	subwf	127,w
  5036  034F  1D03               	skipz
  5037  0350  2B53               	goto	u2625
  5038  0351  30E9               	movlw	233
  5039  0352  023B               	subwf	main@l,w
  5040  0353                     u2625:	
  5041  0353  1803               	btfsc	3,0
  5042  0354  2C2C               	goto	l2509
  5043                           
  5044                           ;mainbrew1double.c: 719: {
  5045                           ;mainbrew1double.c: 728: if((!RC7)&&(!RC6))
  5046  0355  1283               	bcf	3,5	;RP0=0, select bank0
  5047  0356  1303               	bcf	3,6	;RP1=0, select bank0
  5048  0357  1F87               	btfss	7,7	;volatile
  5049  0358  1B07               	btfsc	7,6	;volatile
  5050  0359  2B85               	goto	l267
  5051                           
  5052                           ;mainbrew1double.c: 729: {
  5053                           ;mainbrew1double.c: 730: waterflag = 1;
  5054  035A  01ED               	clrf	_waterflag
  5055  035B  0AED               	incf	_waterflag,f
  5056  035C                     l2617:	
  5057                           ;mainbrew1double.c: 731: waterstart1:
  5058                           
  5059                           
  5060                           ;mainbrew1double.c: 732: for(int i = 0;i<=1000;i++)
  5061  035C  01BD               	clrf	main@i
  5062  035D  01BE               	clrf	main@i+1
  5063  035E                     L6:	
  5064  035E  083E               	movf	main@i+1,w
  5065  035F  3A80               	xorlw	128
  5066  0360  00FF               	movwf	127
  5067  0361  3083               	movlw	131
  5068  0362  027F               	subwf	127,w
  5069  0363  1D03               	skipz
  5070  0364  2B67               	goto	u2655
  5071  0365  30E9               	movlw	233
  5072  0366  023D               	subwf	main@i,w
  5073  0367                     u2655:	
  5074  0367  1803               	btfsc	3,0
  5075  0368  2DE7               	goto	l2817
  5076                           
  5077                           ;mainbrew1double.c: 733: {
  5078                           ;mainbrew1double.c: 734: if(!RC7)
  5079  0369  1283               	bcf	3,5	;RP0=0, select bank0
  5080  036A  1303               	bcf	3,6	;RP1=0, select bank0
  5081  036B  1B87               	btfsc	7,7	;volatile
  5082  036C  2B70               	goto	l2625
  5083                           
  5084                           ;mainbrew1double.c: 735: {
  5085                           ;mainbrew1double.c: 736: wcount=1;
  5086  036D  01CC               	clrf	main@wcount
  5087  036E  0ACC               	incf	main@wcount,f
  5088                           
  5089                           ;mainbrew1double.c: 737: }
  5090  036F  2B71               	goto	l2627
  5091  0370                     l2625:	
  5092                           
  5093                           ;mainbrew1double.c: 738: else
  5094                           ;mainbrew1double.c: 739: {
  5095                           ;mainbrew1double.c: 740: wcount = 0;
  5096  0370  01CC               	clrf	main@wcount
  5097  0371                     l2627:	
  5098                           
  5099                           ;mainbrew1double.c: 741: }
  5100                           ;mainbrew1double.c: 742: if(wcount==0)
  5101  0371  084C               	movf	main@wcount,w
  5102  0372  1903               	btfsc	3,2
  5103  0373  2B5C               	goto	l2617
  5104                           
  5105                           ;mainbrew1double.c: 745: }
  5106                           ;mainbrew1double.c: 746: _delay((unsigned long)((1)*(4000000/4000.0)));
  5107                           
  5108                           ;mainbrew1double.c: 743: {
  5109                           ;mainbrew1double.c: 744: goto waterstart1;
  5110  0374  30C7               	movlw	199
  5111  0375  1283               	bcf	3,5	;RP0=0, select bank0
  5112  0376  1303               	bcf	3,6	;RP1=0, select bank0
  5113  0377  00A5               	movwf	??_main
  5114  0378                     u3487:	
  5115  0378  2B79               	nop2
  5116  0379  0BA5               	decfsz	??_main,f
  5117  037A  2B78               	goto	u3487
  5118  037B  2B7C               	nop2
  5119  037C  3001               	movlw	1
  5120  037D  1283               	bcf	3,5	;RP0=0, select bank0
  5121  037E  1303               	bcf	3,6	;RP1=0, select bank0
  5122  037F  07BD               	addwf	main@i,f
  5123  0380  1803               	skipnc
  5124  0381  0ABE               	incf	main@i+1,f
  5125  0382  3000               	movlw	0
  5126  0383  07BE               	addwf	main@i+1,f
  5127  0384  2B5E               	goto	L6
  5128  0385                     l267:	
  5129                           ;mainbrew1double.c: 759: goto intwater;
  5130                           
  5131                           ;mainbrew1double.c: 756: else
  5132                           ;mainbrew1double.c: 757: {
  5133                           ;mainbrew1double.c: 758: pump = 0;
  5134                           
  5135                           ;mainbrew1double.c: 755: }
  5136                           
  5137                           ;mainbrew1double.c: 753: goto pump;
  5138                           
  5139                           ;mainbrew1double.c: 752: wcount = 0;
  5140                           
  5141                           ;mainbrew1double.c: 749: {
  5142                           ;mainbrew1double.c: 751: pump = 1;
  5143                           
  5144                           ;mainbrew1double.c: 747: }
  5145                           ;mainbrew1double.c: 748: if(wcount == 1)
  5146                           
  5147                           
  5148                           ;mainbrew1double.c: 760: }
  5149                           ;mainbrew1double.c: 761: }
  5150                           ;mainbrew1double.c: 762: if(!RC7)
  5151  0385  1B87               	btfsc	7,7	;volatile
  5152  0386  2BAB               	goto	l2651
  5153                           
  5154                           ;mainbrew1double.c: 763: {
  5155                           ;mainbrew1double.c: 766: Lcd_Set_Cursor(1,2);
  5156  0387  3002               	movlw	2
  5157  0388  00A5               	movwf	??_main
  5158  0389  0825               	movf	??_main,w
  5159  038A  00F4               	movwf	Lcd_Set_Cursor@b
  5160  038B  3001               	movlw	1
  5161  038C  120A  158A  23EB  120A  118A  	fcall	_Lcd_Set_Cursor
  5162                           
  5163                           ;mainbrew1double.c: 767: Lcd_Write_String("sensor2 fault!!    ");
  5164  0391  3000               	movlw	low (STR_22| (0+32768))
  5165  0392  00F5               	movwf	Lcd_Write_String@a
  5166  0393  3090               	movlw	high (STR_22| (0+32768))
  5167  0394  00F6               	movwf	Lcd_Write_String@a+1
  5168  0395  120A  158A  2371  120A  118A  	fcall	_Lcd_Write_String
  5169                           
  5170                           ;mainbrew1double.c: 768: Lcd_Set_Cursor(2,1);
  5171  039A  01F4               	clrf	Lcd_Set_Cursor@b
  5172  039B  0AF4               	incf	Lcd_Set_Cursor@b,f
  5173  039C  3002               	movlw	2
  5174  039D  120A  158A  23EB  120A  118A  	fcall	_Lcd_Set_Cursor
  5175                           
  5176                           ;mainbrew1double.c: 769: Lcd_Write_String("                 ");
  5177  03A2  3014               	movlw	low (STR_23| (0+32768))
  5178  03A3  00F5               	movwf	Lcd_Write_String@a
  5179  03A4  3090               	movlw	high (STR_23| (0+32768))
  5180  03A5  00F6               	movwf	Lcd_Write_String@a+1
  5181  03A6  120A  158A  2371  120A  118A  	fcall	_Lcd_Write_String
  5182  03AB                     l2651:	
  5183                           
  5184                           ;mainbrew1double.c: 771: }
  5185                           ;mainbrew1double.c: 772: if(!RA0)
  5186  03AB  1283               	bcf	3,5	;RP0=0, select bank0
  5187  03AC  1303               	bcf	3,6	;RP1=0, select bank0
  5188  03AD  1805               	btfsc	5,0	;volatile
  5189  03AE  2BDC               	goto	l278
  5190                           
  5191                           ;mainbrew1double.c: 773: {
  5192                           ;mainbrew1double.c: 774: RA7 = 1;
  5193  03AF  1785               	bsf	5,7	;volatile
  5194                           
  5195                           ;mainbrew1double.c: 775: _delay((unsigned long)((350)*(4000000/4000.0)));
  5196  03B0  3002               	movlw	2
  5197  03B1  1283               	bcf	3,5	;RP0=0, select bank0
  5198  03B2  1303               	bcf	3,6	;RP1=0, select bank0
  5199  03B3  00A7               	movwf	??_main+2
  5200  03B4  30C7               	movlw	199
  5201  03B5  00A6               	movwf	??_main+1
  5202  03B6  3087               	movlw	135
  5203  03B7  00A5               	movwf	??_main
  5204  03B8                     u3497:	
  5205  03B8  0BA5               	decfsz	??_main,f
  5206  03B9  2BB8               	goto	u3497
  5207  03BA  0BA6               	decfsz	??_main+1,f
  5208  03BB  2BB8               	goto	u3497
  5209  03BC  0BA7               	decfsz	??_main+2,f
  5210  03BD  2BB8               	goto	u3497
  5211  03BE  2BBF               	nop2
  5212                           
  5213                           ;mainbrew1double.c: 776: if((flag1 == 1)||(flag2 == 1)||(flag7 == 1))
  5214  03BF  1283               	bcf	3,5	;RP0=0, select bank0
  5215  03C0  1303               	bcf	3,6	;RP1=0, select bank0
  5216  03C1  0357               	decf	_flag1,w
  5217  03C2  0458               	iorwf	_flag1+1,w
  5218  03C3  1903               	btfsc	3,2
  5219  03C4  2BCD               	goto	l2663
  5220  03C5  0355               	decf	_flag2,w
  5221  03C6  0456               	iorwf	_flag2+1,w
  5222  03C7  1903               	btfsc	3,2
  5223  03C8  2BCD               	goto	l2663
  5224  03C9  034D               	decf	_flag7,w
  5225  03CA  044E               	iorwf	_flag7+1,w
  5226  03CB  1D03               	btfss	3,2
  5227  03CC  2BDA               	goto	l282
  5228  03CD                     l2663:	
  5229                           
  5230                           ;mainbrew1double.c: 777: {
  5231                           ;mainbrew1double.c: 778: flag1 = 0;
  5232  03CD  01D7               	clrf	_flag1
  5233  03CE  01D8               	clrf	_flag1+1
  5234                           
  5235                           ;mainbrew1double.c: 779: flag2 = 1;
  5236  03CF  3001               	movlw	1
  5237  03D0  00D5               	movwf	_flag2
  5238  03D1  3000               	movlw	0
  5239  03D2  00D6               	movwf	_flag2+1
  5240                           
  5241                           ;mainbrew1double.c: 780: strky = 0;
  5242  03D3  01DD               	clrf	_strky
  5243  03D4  01DE               	clrf	_strky+1
  5244                           
  5245                           ;mainbrew1double.c: 781: pgm1 = 1;
  5246  03D5  3001               	movlw	1
  5247  03D6  00DB               	movwf	_pgm1
  5248  03D7  3000               	movlw	0
  5249  03D8  00DC               	movwf	_pgm1+1
  5250  03D9  2C16               	goto	L1
  5251  03DA                     l282:	
  5252                           ;mainbrew1double.c: 784: }
  5253                           ;mainbrew1double.c: 785: while(!RA0);
  5254                           
  5255                           ;mainbrew1double.c: 783: goto beep;
  5256                           
  5257                           ;mainbrew1double.c: 782: flag7 = 0;
  5258                           
  5259  03DA  1C05               	btfss	5,0	;volatile
  5260  03DB  2BDA               	goto	l282
  5261  03DC                     l278:	
  5262                           
  5263                           ;mainbrew1double.c: 786: }
  5264                           ;mainbrew1double.c: 787: if(!RB4)
  5265  03DC  1A06               	btfsc	6,4	;volatile
  5266  03DD  2C1B               	goto	l2689
  5267                           
  5268                           ;mainbrew1double.c: 788: {
  5269                           ;mainbrew1double.c: 789: RA7 = 1;
  5270  03DE  1785               	bsf	5,7	;volatile
  5271                           
  5272                           ;mainbrew1double.c: 790: _delay((unsigned long)((350)*(4000000/4000.0)));
  5273  03DF  3002               	movlw	2
  5274  03E0  1283               	bcf	3,5	;RP0=0, select bank0
  5275  03E1  1303               	bcf	3,6	;RP1=0, select bank0
  5276  03E2  00A7               	movwf	??_main+2
  5277  03E3  30C7               	movlw	199
  5278  03E4  00A6               	movwf	??_main+1
  5279  03E5  3087               	movlw	135
  5280  03E6  00A5               	movwf	??_main
  5281  03E7                     u3507:	
  5282  03E7  0BA5               	decfsz	??_main,f
  5283  03E8  2BE7               	goto	u3507
  5284  03E9  0BA6               	decfsz	??_main+1,f
  5285  03EA  2BE7               	goto	u3507
  5286  03EB  0BA7               	decfsz	??_main+2,f
  5287  03EC  2BE7               	goto	u3507
  5288  03ED  2BEE               	nop2
  5289                           
  5290                           ;mainbrew1double.c: 791: Write_EEPROM(6,7,1);
  5291  03EE  3007               	movlw	7
  5292  03EF  1283               	bcf	3,5	;RP0=0, select bank0
  5293  03F0  1303               	bcf	3,6	;RP1=0, select bank0
  5294  03F1  00A5               	movwf	??_main
  5295  03F2  0825               	movf	??_main,w
  5296  03F3  00FB               	movwf	Write_EEPROM@a2
  5297  03F4  3001               	movlw	1
  5298  03F5  00FC               	movwf	Write_EEPROM@data_value
  5299  03F6  3000               	movlw	0
  5300  03F7  00FD               	movwf	Write_EEPROM@data_value+1
  5301  03F8  3006               	movlw	6
  5302  03F9  120A  158A  2291  120A  118A  	fcall	_Write_EEPROM
  5303                           
  5304                           ;mainbrew1double.c: 792: if((flag1 == 1)||(flag2 == 1)||(flag7 == 1))
  5305  03FE  1283               	bcf	3,5	;RP0=0, select bank0
  5306  03FF  1303               	bcf	3,6	;RP1=0, select bank0
  5307  0400  0357               	decf	_flag1,w
  5308  0401  0458               	iorwf	_flag1+1,w
  5309  0402  1903               	btfsc	3,2
  5310  0403  2C0C               	goto	l2683
  5311  0404  0355               	decf	_flag2,w
  5312  0405  0456               	iorwf	_flag2+1,w
  5313  0406  1903               	btfsc	3,2
  5314  0407  2C0C               	goto	l2683
  5315  0408  034D               	decf	_flag7,w
  5316  0409  044E               	iorwf	_flag7+1,w
  5317  040A  1D03               	btfss	3,2
  5318  040B  2C19               	goto	l289
  5319  040C                     l2683:	
  5320                           
  5321                           ;mainbrew1double.c: 793: {
  5322                           ;mainbrew1double.c: 794: flag1 = 0;
  5323  040C  01D7               	clrf	_flag1
  5324  040D  01D8               	clrf	_flag1+1
  5325                           
  5326                           ;mainbrew1double.c: 795: flag2 = 1;
  5327  040E  3001               	movlw	1
  5328  040F  00D5               	movwf	_flag2
  5329  0410  3000               	movlw	0
  5330  0411  00D6               	movwf	_flag2+1
  5331                           
  5332                           ;mainbrew1double.c: 796: strky=1;
  5333  0412  3001               	movlw	1
  5334  0413  00DD               	movwf	_strky
  5335  0414  3000               	movlw	0
  5336  0415  00DE               	movwf	_strky+1
  5337  0416                     L1:	
  5338                           
  5339                           ;mainbrew1double.c: 797: flag7 = 0;
  5340  0416  01CD               	clrf	_flag7
  5341  0417  01CE               	clrf	_flag7+1
  5342                           
  5343                           ;mainbrew1double.c: 798: goto beep;
  5344  0418  2C92               	goto	l2707
  5345  0419                     l289:	
  5346                           ;mainbrew1double.c: 799: }
  5347                           ;mainbrew1double.c: 800: while(!RB4);
  5348                           
  5349  0419  1E06               	btfss	6,4	;volatile
  5350  041A  2C19               	goto	l289
  5351  041B                     l2689:	
  5352                           
  5353                           ;mainbrew1double.c: 801: }
  5354                           ;mainbrew1double.c: 802: _delay((unsigned long)((1)*(4000000/4000.0)));
  5355  041B  30C7               	movlw	199
  5356  041C  1283               	bcf	3,5	;RP0=0, select bank0
  5357  041D  1303               	bcf	3,6	;RP1=0, select bank0
  5358  041E  00A5               	movwf	??_main
  5359  041F                     u3517:	
  5360  041F  2C20               	nop2
  5361  0420  0BA5               	decfsz	??_main,f
  5362  0421  2C1F               	goto	u3517
  5363  0422  2C23               	nop2
  5364  0423  3001               	movlw	1
  5365  0424  1283               	bcf	3,5	;RP0=0, select bank0
  5366  0425  1303               	bcf	3,6	;RP1=0, select bank0
  5367  0426  07BB               	addwf	main@l,f
  5368  0427  1803               	skipnc
  5369  0428  0ABC               	incf	main@l+1,f
  5370  0429  3000               	movlw	0
  5371  042A  07BC               	addwf	main@l+1,f
  5372  042B  2B4A               	goto	L4
  5373  042C                     l2509:	
  5374                           ;mainbrew1double.c: 636: {
  5375                           ;mainbrew1double.c: 637: while(1)
  5376                           
  5377                           ;mainbrew1double.c: 804: }
  5378                           ;mainbrew1double.c: 805: }
  5379                           
  5380                           
  5381                           ;mainbrew1double.c: 638: { timerup = 0;
  5382  042C  1283               	bcf	3,5	;RP0=0, select bank0
  5383  042D  1303               	bcf	3,6	;RP1=0, select bank0
  5384  042E  01EA               	clrf	_timerup
  5385                           
  5386                           ;mainbrew1double.c: 639: tempval = checktemp();
  5387  042F  120A  118A  2085  120A  118A  	fcall	_checktemp
  5388  0434  0875               	movf	?_checktemp+1,w
  5389  0435  1283               	bcf	3,5	;RP0=0, select bank0
  5390  0436  1303               	bcf	3,6	;RP1=0, select bank0
  5391  0437  00E2               	movwf	_tempval+1
  5392  0438  0874               	movf	?_checktemp,w
  5393  0439  00E1               	movwf	_tempval
  5394                           
  5395                           ;mainbrew1double.c: 640: int tempflag1 = 0;
  5396  043A  01AE               	clrf	main@tempflag1
  5397  043B  01AF               	clrf	main@tempflag1+1
  5398                           
  5399                           ;mainbrew1double.c: 641: if(tempval>0)
  5400  043C  0862               	movf	_tempval+1,w
  5401  043D  3A80               	xorlw	128
  5402  043E  00FF               	movwf	127
  5403  043F  3080               	movlw	128
  5404  0440  027F               	subwf	127,w
  5405  0441  1D03               	skipz
  5406  0442  2C45               	goto	u2525
  5407  0443  3001               	movlw	1
  5408  0444  0261               	subwf	_tempval,w
  5409  0445                     u2525:	
  5410  0445  1803               	btfsc	3,0
  5411  0446  29DF               	goto	l2517
  5412                           
  5413                           ;mainbrew1double.c: 806: else
  5414                           ;mainbrew1double.c: 807: {
  5415                           ;mainbrew1double.c: 808: Lcd_Set_Cursor(1,2);
  5416  0447  3002               	movlw	2
  5417  0448  1283               	bcf	3,5	;RP0=0, select bank0
  5418  0449  1303               	bcf	3,6	;RP1=0, select bank0
  5419  044A  00A5               	movwf	??_main
  5420  044B  0825               	movf	??_main,w
  5421  044C  00F4               	movwf	Lcd_Set_Cursor@b
  5422  044D  3001               	movlw	1
  5423  044E  120A  158A  23EB  120A  118A  	fcall	_Lcd_Set_Cursor
  5424                           
  5425                           ;mainbrew1double.c: 809: Lcd_Write_String("SENSOR FAULT!!!");
  5426  0453  306A               	movlw	low (STR_24| (0+32768))
  5427  0454  00F5               	movwf	Lcd_Write_String@a
  5428  0455  3090               	movlw	high (STR_24| (0+32768))
  5429  0456  00F6               	movwf	Lcd_Write_String@a+1
  5430  0457  120A  158A  2371  120A  118A  	fcall	_Lcd_Write_String
  5431                           
  5432                           ;mainbrew1double.c: 810: Lcd_Set_Cursor(2,1);
  5433  045C  01F4               	clrf	Lcd_Set_Cursor@b
  5434  045D  0AF4               	incf	Lcd_Set_Cursor@b,f
  5435  045E  3002               	movlw	2
  5436  045F  120A  158A  23EB  120A  118A  	fcall	_Lcd_Set_Cursor
  5437                           
  5438                           ;mainbrew1double.c: 811: Lcd_Write_String("                ");
  5439  0464  3015               	movlw	low ((STR_23+1)| (0+32768))
  5440  0465  00F5               	movwf	Lcd_Write_String@a
  5441  0466  3090               	movlw	high ((STR_23+1)| (0+32768))
  5442  0467  00F6               	movwf	Lcd_Write_String@a+1
  5443  0468  120A  158A  2371  120A  118A  	fcall	_Lcd_Write_String
  5444                           
  5445                           ;mainbrew1double.c: 812: RA7 = 1;
  5446  046D  1283               	bcf	3,5	;RP0=0, select bank0
  5447  046E  1303               	bcf	3,6	;RP1=0, select bank0
  5448  046F  1785               	bsf	5,7	;volatile
  5449                           
  5450                           ;mainbrew1double.c: 813: _delay((unsigned long)((200)*(4000000/4000.0)));
  5451  0470  3002               	movlw	2
  5452  0471  1283               	bcf	3,5	;RP0=0, select bank0
  5453  0472  1303               	bcf	3,6	;RP1=0, select bank0
  5454  0473  00A7               	movwf	??_main+2
  5455  0474  3004               	movlw	4
  5456  0475  00A6               	movwf	??_main+1
  5457  0476  30B9               	movlw	185
  5458  0477  00A5               	movwf	??_main
  5459  0478                     u3527:	
  5460  0478  0BA5               	decfsz	??_main,f
  5461  0479  2C78               	goto	u3527
  5462  047A  0BA6               	decfsz	??_main+1,f
  5463  047B  2C78               	goto	u3527
  5464  047C  0BA7               	decfsz	??_main+2,f
  5465  047D  2C78               	goto	u3527
  5466  047E  2C7F               	nop2
  5467                           
  5468                           ;mainbrew1double.c: 814: RA7 = 0;
  5469  047F  1283               	bcf	3,5	;RP0=0, select bank0
  5470  0480  1303               	bcf	3,6	;RP1=0, select bank0
  5471  0481  1385               	bcf	5,7	;volatile
  5472                           
  5473                           ;mainbrew1double.c: 815: _delay((unsigned long)((200)*(4000000/4000.0)));
  5474  0482  3002               	movlw	2
  5475  0483  1283               	bcf	3,5	;RP0=0, select bank0
  5476  0484  1303               	bcf	3,6	;RP1=0, select bank0
  5477  0485  00A7               	movwf	??_main+2
  5478  0486  3004               	movlw	4
  5479  0487  00A6               	movwf	??_main+1
  5480  0488  30B9               	movlw	185
  5481  0489  00A5               	movwf	??_main
  5482  048A                     u3537:	
  5483  048A  0BA5               	decfsz	??_main,f
  5484  048B  2C8A               	goto	u3537
  5485  048C  0BA6               	decfsz	??_main+1,f
  5486  048D  2C8A               	goto	u3537
  5487  048E  0BA7               	decfsz	??_main+2,f
  5488  048F  2C8A               	goto	u3537
  5489  0490  2C91               	nop2
  5490  0491  2C2C               	goto	l2509
  5491  0492                     l2707:	
  5492                           ;mainbrew1double.c: 823: }
  5493                           ;mainbrew1double.c: 825: beep:
  5494                           
  5495                           ;mainbrew1double.c: 820: else
  5496                           ;mainbrew1double.c: 821: {
  5497                           ;mainbrew1double.c: 822: goto pump;
  5498                           
  5499                           ;mainbrew1double.c: 817: }
  5500                           ;mainbrew1double.c: 818: }
  5501                           ;mainbrew1double.c: 819: }
  5502                           
  5503                           
  5504                           ;mainbrew1double.c: 826: if(flag1 == 1)
  5505  0492  1283               	bcf	3,5	;RP0=0, select bank0
  5506  0493  1303               	bcf	3,6	;RP1=0, select bank0
  5507  0494  0357               	decf	_flag1,w
  5508  0495  0458               	iorwf	_flag1+1,w
  5509  0496  1D03               	btfss	3,2
  5510  0497  2CC1               	goto	l2725
  5511                           
  5512                           ;mainbrew1double.c: 827: {
  5513                           ;mainbrew1double.c: 828: RC0 = 1;
  5514  0498  1407               	bsf	7,0	;volatile
  5515                           
  5516                           ;mainbrew1double.c: 829: RA1 = 1;
  5517  0499  1485               	bsf	5,1	;volatile
  5518                           
  5519                           ;mainbrew1double.c: 830: RA7 = 1;
  5520  049A  1785               	bsf	5,7	;volatile
  5521                           
  5522                           ;mainbrew1double.c: 831: _delay((unsigned long)((250)*(4000000/4000.0)));
  5523  049B  3002               	movlw	2
  5524  049C  1283               	bcf	3,5	;RP0=0, select bank0
  5525  049D  1303               	bcf	3,6	;RP1=0, select bank0
  5526  049E  00A7               	movwf	??_main+2
  5527  049F  3045               	movlw	69
  5528  04A0  00A6               	movwf	??_main+1
  5529  04A1  30A9               	movlw	169
  5530  04A2  00A5               	movwf	??_main
  5531  04A3                     u3547:	
  5532  04A3  0BA5               	decfsz	??_main,f
  5533  04A4  2CA3               	goto	u3547
  5534  04A5  0BA6               	decfsz	??_main+1,f
  5535  04A6  2CA3               	goto	u3547
  5536  04A7  0BA7               	decfsz	??_main+2,f
  5537  04A8  2CA3               	goto	u3547
  5538                           
  5539                           ;mainbrew1double.c: 832: RA7 = 0;
  5540  04A9  1283               	bcf	3,5	;RP0=0, select bank0
  5541  04AA  1303               	bcf	3,6	;RP1=0, select bank0
  5542  04AB  1385               	bcf	5,7	;volatile
  5543                           
  5544                           ;mainbrew1double.c: 833: flag4 = 1;
  5545  04AC  3001               	movlw	1
  5546  04AD  00D3               	movwf	_flag4
  5547  04AE  3000               	movlw	0
  5548  04AF  00D4               	movwf	_flag4+1
  5549                           
  5550                           ;mainbrew1double.c: 834: flag5 = 0;
  5551  04B0  01D1               	clrf	_flag5
  5552  04B1  01D2               	clrf	_flag5+1
  5553                           
  5554                           ;mainbrew1double.c: 835: flag6 = 1;
  5555  04B2  3001               	movlw	1
  5556  04B3  00CF               	movwf	_flag6
  5557  04B4  3000               	movlw	0
  5558  04B5  00D0               	movwf	_flag6+1
  5559                           
  5560                           ;mainbrew1double.c: 836: if(strky == 1)
  5561  04B6  035D               	decf	_strky,w
  5562  04B7  045E               	iorwf	_strky+1,w
  5563  04B8  1D03               	btfss	3,2
  5564  04B9  29BE               	goto	l2505
  5565                           
  5566                           ;mainbrew1double.c: 837: {
  5567                           ;mainbrew1double.c: 838: flag2 = 0;
  5568  04BA  01D5               	clrf	_flag2
  5569  04BB  01D6               	clrf	_flag2+1
  5570                           
  5571                           ;mainbrew1double.c: 839: strky = 0;
  5572  04BC  01DD               	clrf	_strky
  5573  04BD  01DE               	clrf	_strky+1
  5574                           
  5575                           ;mainbrew1double.c: 840: flag1 = 0;
  5576  04BE  01D7               	clrf	_flag1
  5577  04BF  01D8               	clrf	_flag1+1
  5578                           
  5579                           ;mainbrew1double.c: 841: goto ready;
  5580  04C0  292C               	goto	l2473
  5581  04C1                     l2725:	
  5582                           ;mainbrew1double.c: 844: }
  5583                           
  5584                           ;mainbrew1double.c: 842: }
  5585                           ;mainbrew1double.c: 843: goto temp;
  5586                           
  5587                           
  5588                           ;mainbrew1double.c: 845: else if(flag2 == 1)
  5589  04C1  0355               	decf	_flag2,w
  5590  04C2  0456               	iorwf	_flag2+1,w
  5591  04C3  1D03               	btfss	3,2
  5592  04C4  2D75               	goto	l2269
  5593                           
  5594                           ;mainbrew1double.c: 846: {
  5595                           ;mainbrew1double.c: 847: RC0 = 0;
  5596  04C5  1007               	bcf	7,0	;volatile
  5597                           
  5598                           ;mainbrew1double.c: 848: RA1 = 0;
  5599  04C6  1085               	bcf	5,1	;volatile
  5600                           
  5601                           ;mainbrew1double.c: 849: RA7 = 1;
  5602  04C7  1785               	bsf	5,7	;volatile
  5603                           
  5604                           ;mainbrew1double.c: 850: _delay((unsigned long)((250)*(4000000/4000.0)));
  5605  04C8  3002               	movlw	2
  5606  04C9  1283               	bcf	3,5	;RP0=0, select bank0
  5607  04CA  1303               	bcf	3,6	;RP1=0, select bank0
  5608  04CB  00A7               	movwf	??_main+2
  5609  04CC  3045               	movlw	69
  5610  04CD  00A6               	movwf	??_main+1
  5611  04CE  30A9               	movlw	169
  5612  04CF  00A5               	movwf	??_main
  5613  04D0                     u3557:	
  5614  04D0  0BA5               	decfsz	??_main,f
  5615  04D1  2CD0               	goto	u3557
  5616  04D2  0BA6               	decfsz	??_main+1,f
  5617  04D3  2CD0               	goto	u3557
  5618  04D4  0BA7               	decfsz	??_main+2,f
  5619  04D5  2CD0               	goto	u3557
  5620                           
  5621                           ;mainbrew1double.c: 851: RA7 = 0;
  5622  04D6  1283               	bcf	3,5	;RP0=0, select bank0
  5623  04D7  1303               	bcf	3,6	;RP1=0, select bank0
  5624  04D8  1385               	bcf	5,7	;volatile
  5625                           
  5626                           ;mainbrew1double.c: 852: flag4 = 0;
  5627  04D9  01D3               	clrf	_flag4
  5628  04DA  01D4               	clrf	_flag4+1
  5629                           
  5630                           ;mainbrew1double.c: 853: flag5 = 1;
  5631  04DB  3001               	movlw	1
  5632  04DC  00D1               	movwf	_flag5
  5633  04DD  3000               	movlw	0
  5634  04DE  00D2               	movwf	_flag5+1
  5635                           
  5636                           ;mainbrew1double.c: 854: flag6 = 1;
  5637  04DF  3001               	movlw	1
  5638  04E0  00CF               	movwf	_flag6
  5639  04E1  3000               	movlw	0
  5640  04E2  00D0               	movwf	_flag6+1
  5641                           
  5642                           ;mainbrew1double.c: 855: if(pgm1 == 1)
  5643  04E3  035B               	decf	_pgm1,w
  5644  04E4  045C               	iorwf	_pgm1+1,w
  5645  04E5  1D03               	btfss	3,2
  5646  04E6  2CEE               	goto	l2743
  5647                           
  5648                           ;mainbrew1double.c: 856: {
  5649                           ;mainbrew1double.c: 857: flag2 = 0;
  5650  04E7  01D5               	clrf	_flag2
  5651  04E8  01D6               	clrf	_flag2+1
  5652                           
  5653                           ;mainbrew1double.c: 858: pgm1 = 0;
  5654  04E9  01DB               	clrf	_pgm1
  5655  04EA  01DC               	clrf	_pgm1+1
  5656  04EB                     L10:	
  5657                           
  5658                           ;mainbrew1double.c: 859: goto start;
  5659  04EB  120A  158A  2E96   	goto	l2299
  5660  04EE                     l2743:	
  5661                           
  5662                           ;mainbrew1double.c: 860: }
  5663                           ;mainbrew1double.c: 861: if(strky == 1)
  5664  04EE  035D               	decf	_strky,w
  5665  04EF  045E               	iorwf	_strky+1,w
  5666  04F0  1D03               	btfss	3,2
  5667  04F1  29BE               	goto	l2505
  5668                           
  5669                           ;mainbrew1double.c: 862: {
  5670                           ;mainbrew1double.c: 863: flag2 = 0;
  5671  04F2  01D5               	clrf	_flag2
  5672  04F3  01D6               	clrf	_flag2+1
  5673                           
  5674                           ;mainbrew1double.c: 864: strky = 0;
  5675  04F4  01DD               	clrf	_strky
  5676  04F5  01DE               	clrf	_strky+1
  5677                           
  5678                           ;mainbrew1double.c: 865: goto ready;
  5679  04F6  292C               	goto	l2473
  5680  04F7                     l2747:	
  5681                           ;mainbrew1double.c: 869: }
  5682                           ;mainbrew1double.c: 872: }
  5683                           
  5684                           ;mainbrew1double.c: 866: }
  5685                           ;mainbrew1double.c: 867: goto temp;
  5686                           
  5687                           
  5688                           ;mainbrew1double.c: 873: else if(powerval == 0)
  5689  04F7  0846               	movf	main@powerval,w
  5690  04F8  0447               	iorwf	main@powerval+1,w
  5691  04F9  1D03               	btfss	3,2
  5692  04FA  2D75               	goto	l2269
  5693                           
  5694                           ;mainbrew1double.c: 874: { wcount++;
  5695  04FB  3001               	movlw	1
  5696  04FC  00A5               	movwf	??_main
  5697  04FD  0825               	movf	??_main,w
  5698  04FE  07CC               	addwf	main@wcount,f
  5699                           
  5700                           ;mainbrew1double.c: 875: if(wcount<=2)
  5701  04FF  3003               	movlw	3
  5702  0500  024C               	subwf	main@wcount,w
  5703  0501  1803               	skipnc
  5704  0502  2FF2               	goto	__end_of_main
  5705                           
  5706                           ;mainbrew1double.c: 876: {
  5707                           ;mainbrew1double.c: 878: if(wcount==2)
  5708  0503  3002               	movlw	2
  5709  0504  064C               	xorwf	main@wcount,w
  5710  0505  1903               	btfsc	3,2
  5711                           
  5712                           ;mainbrew1double.c: 879: {
  5713                           ;mainbrew1double.c: 880: wcount = 0;
  5714  0506  01CC               	clrf	main@wcount
  5715                           
  5716                           ;mainbrew1double.c: 881: }
  5717                           ;mainbrew1double.c: 882: if(!RC7)
  5718  0507  1B87               	btfsc	7,7	;volatile
  5719  0508  2FF2               	goto	L11
  5720                           
  5721                           ;mainbrew1double.c: 883: {
  5722                           ;mainbrew1double.c: 884: for(int i =0;i<=1000;i++)
  5723  0509  01BF               	clrf	main@i_193
  5724  050A  01C0               	clrf	main@i_193+1
  5725  050B                     L5:	
  5726  050B  0840               	movf	main@i_193+1,w
  5727  050C  3A80               	xorlw	128
  5728  050D  00FF               	movwf	127
  5729  050E  3083               	movlw	131
  5730  050F  027F               	subwf	127,w
  5731  0510  1D03               	skipz
  5732  0511  2D14               	goto	u2915
  5733  0512  30E9               	movlw	233
  5734  0513  023F               	subwf	main@i_193,w
  5735  0514                     u2915:	
  5736  0514  1803               	btfsc	3,0
  5737  0515  2FF2               	goto	L11
  5738                           
  5739                           ;mainbrew1double.c: 885: {
  5740                           ;mainbrew1double.c: 886: if(!RC7)
  5741  0516  1283               	bcf	3,5	;RP0=0, select bank0
  5742  0517  1303               	bcf	3,6	;RP1=0, select bank0
  5743  0518  1F87               	btfss	7,7	;volatile
  5744  0519  2DEC               	goto	l2819
  5745                           
  5746                           ;mainbrew1double.c: 893: }
  5747                           ;mainbrew1double.c: 894: _delay((unsigned long)((1)*(4000000/4000.0)));
  5748                           
  5749                           ;mainbrew1double.c: 892: goto pump;
  5750                           
  5751                           ;mainbrew1double.c: 890: wcount = 0;
  5752                           
  5753                           ;mainbrew1double.c: 887: {
  5754                           ;mainbrew1double.c: 889: pump = 1;
  5755  051A  30C7               	movlw	199
  5756  051B  1283               	bcf	3,5	;RP0=0, select bank0
  5757  051C  1303               	bcf	3,6	;RP1=0, select bank0
  5758  051D  00A5               	movwf	??_main
  5759  051E                     u3567:	
  5760  051E  2D1F               	nop2
  5761  051F  0BA5               	decfsz	??_main,f
  5762  0520  2D1E               	goto	u3567
  5763  0521  2D22               	nop2
  5764  0522  3001               	movlw	1
  5765  0523  1283               	bcf	3,5	;RP0=0, select bank0
  5766  0524  1303               	bcf	3,6	;RP1=0, select bank0
  5767  0525  07BF               	addwf	main@i_193,f
  5768  0526  1803               	skipnc
  5769  0527  0AC0               	incf	main@i_193+1,f
  5770  0528  3000               	movlw	0
  5771  0529  07C0               	addwf	main@i_193+1,f
  5772  052A  2D0B               	goto	L5
  5773  052B                     l2773:	
  5774                           ;mainbrew1double.c: 902: }
  5775                           ;mainbrew1double.c: 903: }
  5776                           
  5777                           ;mainbrew1double.c: 895: }
  5778                           ;mainbrew1double.c: 897: }
  5779                           ;mainbrew1double.c: 900: }
  5780                           ;mainbrew1double.c: 901: goto initialstart;
  5781                           
  5782                           
  5783                           ;mainbrew1double.c: 904: else
  5784                           ;mainbrew1double.c: 905: {
  5785                           ;mainbrew1double.c: 906: Lcd_Set_Cursor(1,2);
  5786  052B  3002               	movlw	2
  5787  052C  1283               	bcf	3,5	;RP0=0, select bank0
  5788  052D  1303               	bcf	3,6	;RP1=0, select bank0
  5789  052E  00A5               	movwf	??_main
  5790  052F  0825               	movf	??_main,w
  5791  0530  00F4               	movwf	Lcd_Set_Cursor@b
  5792  0531  3001               	movlw	1
  5793  0532  120A  158A  23EB  120A  118A  	fcall	_Lcd_Set_Cursor
  5794                           
  5795                           ;mainbrew1double.c: 907: Lcd_Write_String("SENSOR FAULT!!!");
  5796  0537  306A               	movlw	low (STR_24| (0+32768))
  5797  0538  00F5               	movwf	Lcd_Write_String@a
  5798  0539  3090               	movlw	high (STR_24| (0+32768))
  5799  053A  00F6               	movwf	Lcd_Write_String@a+1
  5800  053B  120A  158A  2371  120A  118A  	fcall	_Lcd_Write_String
  5801                           
  5802                           ;mainbrew1double.c: 908: Lcd_Set_Cursor(2,1);
  5803  0540  01F4               	clrf	Lcd_Set_Cursor@b
  5804  0541  0AF4               	incf	Lcd_Set_Cursor@b,f
  5805  0542  3002               	movlw	2
  5806  0543  120A  158A  23EB  120A  118A  	fcall	_Lcd_Set_Cursor
  5807                           
  5808                           ;mainbrew1double.c: 909: Lcd_Write_String("                ");
  5809  0548  3015               	movlw	low ((STR_23+1)| (0+32768))
  5810  0549  00F5               	movwf	Lcd_Write_String@a
  5811  054A  3090               	movlw	high ((STR_23+1)| (0+32768))
  5812  054B  00F6               	movwf	Lcd_Write_String@a+1
  5813  054C  120A  158A  2371  120A  118A  	fcall	_Lcd_Write_String
  5814                           
  5815                           ;mainbrew1double.c: 910: RA7 = 1;
  5816  0551  1283               	bcf	3,5	;RP0=0, select bank0
  5817  0552  1303               	bcf	3,6	;RP1=0, select bank0
  5818  0553  1785               	bsf	5,7	;volatile
  5819                           
  5820                           ;mainbrew1double.c: 911: _delay((unsigned long)((200)*(4000000/4000.0)));
  5821  0554  3002               	movlw	2
  5822  0555  1283               	bcf	3,5	;RP0=0, select bank0
  5823  0556  1303               	bcf	3,6	;RP1=0, select bank0
  5824  0557  00A7               	movwf	??_main+2
  5825  0558  3004               	movlw	4
  5826  0559  00A6               	movwf	??_main+1
  5827  055A  30B9               	movlw	185
  5828  055B  00A5               	movwf	??_main
  5829  055C                     u3577:	
  5830  055C  0BA5               	decfsz	??_main,f
  5831  055D  2D5C               	goto	u3577
  5832  055E  0BA6               	decfsz	??_main+1,f
  5833  055F  2D5C               	goto	u3577
  5834  0560  0BA7               	decfsz	??_main+2,f
  5835  0561  2D5C               	goto	u3577
  5836  0562  2D63               	nop2
  5837                           
  5838                           ;mainbrew1double.c: 912: RA7 = 0;
  5839  0563  1283               	bcf	3,5	;RP0=0, select bank0
  5840  0564  1303               	bcf	3,6	;RP1=0, select bank0
  5841  0565  1385               	bcf	5,7	;volatile
  5842                           
  5843                           ;mainbrew1double.c: 913: _delay((unsigned long)((200)*(4000000/4000.0)));
  5844  0566  3002               	movlw	2
  5845  0567  1283               	bcf	3,5	;RP0=0, select bank0
  5846  0568  1303               	bcf	3,6	;RP1=0, select bank0
  5847  0569  00A7               	movwf	??_main+2
  5848  056A  3004               	movlw	4
  5849  056B  00A6               	movwf	??_main+1
  5850  056C  30B9               	movlw	185
  5851  056D  00A5               	movwf	??_main
  5852  056E                     u3587:	
  5853  056E  0BA5               	decfsz	??_main,f
  5854  056F  2D6E               	goto	u3587
  5855  0570  0BA6               	decfsz	??_main+1,f
  5856  0571  2D6E               	goto	u3587
  5857  0572  0BA7               	decfsz	??_main+2,f
  5858  0573  2D6E               	goto	u3587
  5859  0574  2D75               	nop2
  5860  0575                     l2269:	
  5861                           ;mainbrew1double.c: 384: {
  5862                           ;mainbrew1double.c: 385: intstart:
  5863                           
  5864                           ;mainbrew1double.c: 382: while(1)
  5865                           
  5866                           ;mainbrew1double.c: 914: }
  5867                           ;mainbrew1double.c: 915: }
  5868                           
  5869                           
  5870                           ;mainbrew1double.c: 387: RA2 = 1;
  5871  0575  1283               	bcf	3,5	;RP0=0, select bank0
  5872  0576  1303               	bcf	3,6	;RP1=0, select bank0
  5873  0577  1505               	bsf	5,2	;volatile
  5874                           
  5875                           ;mainbrew1double.c: 388: if(RC7)
  5876  0578  120A  158A  1B87   	btfsc	7,7	;volatile
  5877  057B  2E20               	goto	l2273
  5878                           
  5879                           ;mainbrew1double.c: 916: else
  5880                           ;mainbrew1double.c: 917: {
  5881                           ;mainbrew1double.c: 918: Lcd_Set_Cursor(1,2);
  5882  057C  3002               	movlw	2
  5883  057D  1283               	bcf	3,5	;RP0=0, select bank0
  5884  057E  1303               	bcf	3,6	;RP1=0, select bank0
  5885  057F  00A5               	movwf	??_main
  5886  0580  0825               	movf	??_main,w
  5887  0581  00F4               	movwf	Lcd_Set_Cursor@b
  5888  0582  3001               	movlw	1
  5889  0583  120A  158A  23EB  120A  118A  	fcall	_Lcd_Set_Cursor
  5890                           
  5891                           ;mainbrew1double.c: 919: Lcd_Write_String("Checking water");
  5892  0588  30C7               	movlw	low (STR_28| (0+32768))
  5893  0589  00F5               	movwf	Lcd_Write_String@a
  5894  058A  3090               	movlw	high (STR_28| (0+32768))
  5895  058B  00F6               	movwf	Lcd_Write_String@a+1
  5896  058C  120A  158A  2371  120A  118A  	fcall	_Lcd_Write_String
  5897                           
  5898                           ;mainbrew1double.c: 920: _delay((unsigned long)((1000)*(4000000/4000.0)));
  5899  0591  3006               	movlw	6
  5900  0592  1283               	bcf	3,5	;RP0=0, select bank0
  5901  0593  1303               	bcf	3,6	;RP1=0, select bank0
  5902  0594  00A7               	movwf	??_main+2
  5903  0595  3013               	movlw	19
  5904  0596  00A6               	movwf	??_main+1
  5905  0597  30AD               	movlw	173
  5906  0598  00A5               	movwf	??_main
  5907  0599                     u3597:	
  5908  0599  0BA5               	decfsz	??_main,f
  5909  059A  2D99               	goto	u3597
  5910  059B  0BA6               	decfsz	??_main+1,f
  5911  059C  2D99               	goto	u3597
  5912  059D  0BA7               	decfsz	??_main+2,f
  5913  059E  2D99               	goto	u3597
  5914                           
  5915                           ;mainbrew1double.c: 921: waterchk = Read_EEPROM(6,7);
  5916  059F  3007               	movlw	7
  5917  05A0  1283               	bcf	3,5	;RP0=0, select bank0
  5918  05A1  1303               	bcf	3,6	;RP1=0, select bank0
  5919  05A2  00A5               	movwf	??_main
  5920  05A3  0825               	movf	??_main,w
  5921  05A4  00F6               	movwf	Read_EEPROM@b2
  5922  05A5  3006               	movlw	6
  5923  05A6  120A  158A  22FC  120A  118A  	fcall	_Read_EEPROM
  5924  05AB  0876               	movf	?_Read_EEPROM,w
  5925  05AC  1283               	bcf	3,5	;RP0=0, select bank0
  5926  05AD  1303               	bcf	3,6	;RP1=0, select bank0
  5927  05AE  00A6               	movwf	??_main+1
  5928  05AF  0826               	movf	??_main+1,w
  5929  05B0  00EE               	movwf	_waterchk
  5930  05B1                     l2795:	
  5931                           ;mainbrew1double.c: 923: while(1)
  5932                           
  5933                           
  5934                           ;mainbrew1double.c: 924: {
  5935                           ;mainbrew1double.c: 925: if((!RC7)&&(!RC6))
  5936  05B1  1F87               	btfss	7,7	;volatile
  5937  05B2  1B07               	btfsc	7,6	;volatile
  5938  05B3  2DF0               	goto	l313
  5939  05B4                     l2799:	
  5940                           ;mainbrew1double.c: 926: {
  5941                           ;mainbrew1double.c: 927: waterstart:
  5942                           
  5943                           
  5944                           ;mainbrew1double.c: 928: for(int i = 0;i<=1000;i++)
  5945  05B4  01C1               	clrf	main@i_197
  5946  05B5  01C2               	clrf	main@i_197+1
  5947  05B6  0842               	movf	main@i_197+1,w
  5948  05B7  3A80               	xorlw	128
  5949  05B8  00FF               	movwf	127
  5950  05B9  3083               	movlw	131
  5951  05BA  027F               	subwf	127,w
  5952  05BB  1D03               	skipz
  5953  05BC  2DBF               	goto	u2965
  5954  05BD  30E9               	movlw	233
  5955  05BE  0241               	subwf	main@i_197,w
  5956  05BF                     u2965:	
  5957  05BF  1803               	btfsc	3,0
  5958  05C0  2DE7               	goto	l2817
  5959  05C1                     l315:	
  5960                           
  5961                           ;mainbrew1double.c: 929: {
  5962                           ;mainbrew1double.c: 930: if(!RC7)
  5963  05C1  1283               	bcf	3,5	;RP0=0, select bank0
  5964  05C2  1303               	bcf	3,6	;RP1=0, select bank0
  5965  05C3  1B87               	btfsc	7,7	;volatile
  5966  05C4  2DC8               	goto	l2807
  5967                           
  5968                           ;mainbrew1double.c: 931: {
  5969                           ;mainbrew1double.c: 932: wcount=1;
  5970  05C5  01CC               	clrf	main@wcount
  5971  05C6  0ACC               	incf	main@wcount,f
  5972                           
  5973                           ;mainbrew1double.c: 933: }
  5974  05C7  2DC9               	goto	l2809
  5975  05C8                     l2807:	
  5976                           
  5977                           ;mainbrew1double.c: 934: else
  5978                           ;mainbrew1double.c: 935: {
  5979                           ;mainbrew1double.c: 936: wcount = 0;
  5980  05C8  01CC               	clrf	main@wcount
  5981  05C9                     l2809:	
  5982                           
  5983                           ;mainbrew1double.c: 937: }
  5984                           ;mainbrew1double.c: 938: if(wcount == 0)
  5985  05C9  084C               	movf	main@wcount,w
  5986  05CA  1903               	btfsc	3,2
  5987  05CB  2DB4               	goto	l2799
  5988                           
  5989                           ;mainbrew1double.c: 941: }
  5990                           ;mainbrew1double.c: 942: _delay((unsigned long)((1)*(4000000/4000.0)));
  5991                           
  5992                           ;mainbrew1double.c: 939: {
  5993                           ;mainbrew1double.c: 940: goto waterstart;
  5994  05CC  30C7               	movlw	199
  5995  05CD  1283               	bcf	3,5	;RP0=0, select bank0
  5996  05CE  1303               	bcf	3,6	;RP1=0, select bank0
  5997  05CF  00A5               	movwf	??_main
  5998  05D0                     u3607:	
  5999  05D0  2DD1               	nop2
  6000  05D1  0BA5               	decfsz	??_main,f
  6001  05D2  2DD0               	goto	u3607
  6002  05D3  2DD4               	nop2
  6003  05D4  3001               	movlw	1
  6004  05D5  1283               	bcf	3,5	;RP0=0, select bank0
  6005  05D6  1303               	bcf	3,6	;RP1=0, select bank0
  6006  05D7  07C1               	addwf	main@i_197,f
  6007  05D8  1803               	skipnc
  6008  05D9  0AC2               	incf	main@i_197+1,f
  6009  05DA  3000               	movlw	0
  6010  05DB  07C2               	addwf	main@i_197+1,f
  6011  05DC  0842               	movf	main@i_197+1,w
  6012  05DD  3A80               	xorlw	128
  6013  05DE  00FF               	movwf	127
  6014  05DF  3083               	movlw	131
  6015  05E0  027F               	subwf	127,w
  6016  05E1  1D03               	skipz
  6017  05E2  2DE5               	goto	u2995
  6018  05E3  30E9               	movlw	233
  6019  05E4  0241               	subwf	main@i_197,w
  6020  05E5                     u2995:	
  6021  05E5  1C03               	skipc
  6022  05E6  2DC1               	goto	l315
  6023  05E7                     l2817:	
  6024                           
  6025                           ;mainbrew1double.c: 943: }
  6026                           ;mainbrew1double.c: 944: if(wcount == 1)
  6027  05E7  1283               	bcf	3,5	;RP0=0, select bank0
  6028  05E8  1303               	bcf	3,6	;RP1=0, select bank0
  6029  05E9  034C               	decf	main@wcount,w
  6030  05EA  1D03               	btfss	3,2
  6031  05EB  2F05               	goto	l2905
  6032  05EC                     l2819:	
  6033                           
  6034                           ;mainbrew1double.c: 945: {
  6035                           ;mainbrew1double.c: 946: pump = 1;
  6036  05EC  01C5               	clrf	main@pump
  6037  05ED  0AC5               	incf	main@pump,f
  6038                           
  6039                           ;mainbrew1double.c: 947: wcount = 0;
  6040  05EE  01CC               	clrf	main@wcount
  6041                           
  6042                           ;mainbrew1double.c: 948: goto pump;
  6043  05EF  2E2E               	goto	l2843
  6044  05F0                     l313:	
  6045                           ;mainbrew1double.c: 953: goto intwater;
  6046                           
  6047                           ;mainbrew1double.c: 950: else
  6048                           ;mainbrew1double.c: 951: {
  6049                           ;mainbrew1double.c: 952: pump = 0;
  6050                           
  6051                           ;mainbrew1double.c: 949: }
  6052                           
  6053                           
  6054                           ;mainbrew1double.c: 954: }
  6055                           ;mainbrew1double.c: 955: }
  6056                           ;mainbrew1double.c: 956: if(RC6)
  6057  05F0  1F07               	btfss	7,6	;volatile
  6058  05F1  2DB1               	goto	l2795
  6059                           
  6060                           ;mainbrew1double.c: 957: {
  6061                           ;mainbrew1double.c: 958: Lcd_Set_Cursor(1,2);
  6062  05F2  3002               	movlw	2
  6063  05F3  00A5               	movwf	??_main
  6064  05F4  0825               	movf	??_main,w
  6065  05F5  00F4               	movwf	Lcd_Set_Cursor@b
  6066  05F6  3001               	movlw	1
  6067  05F7  120A  158A  23EB  120A  118A  	fcall	_Lcd_Set_Cursor
  6068                           
  6069                           ;mainbrew1double.c: 959: Lcd_Write_String("sensor2 fault!!");
  6070  05FC  307A               	movlw	low (STR_29| (0+32768))
  6071  05FD  00F5               	movwf	Lcd_Write_String@a
  6072  05FE  3090               	movlw	high (STR_29| (0+32768))
  6073  05FF  00F6               	movwf	Lcd_Write_String@a+1
  6074  0600  120A  158A  2371  120A  118A  	fcall	_Lcd_Write_String
  6075  0605                     l2831:	
  6076                           ;mainbrew1double.c: 960: while(1)
  6077                           
  6078                           
  6079                           ;mainbrew1double.c: 961: {
  6080                           ;mainbrew1double.c: 962: RA7 = 1;
  6081  0605  1283               	bcf	3,5	;RP0=0, select bank0
  6082  0606  1303               	bcf	3,6	;RP1=0, select bank0
  6083  0607  1785               	bsf	5,7	;volatile
  6084                           
  6085                           ;mainbrew1double.c: 963: _delay((unsigned long)((200)*(4000000/4000.0)));
  6086  0608  3002               	movlw	2
  6087  0609  1283               	bcf	3,5	;RP0=0, select bank0
  6088  060A  1303               	bcf	3,6	;RP1=0, select bank0
  6089  060B  00A7               	movwf	??_main+2
  6090  060C  3004               	movlw	4
  6091  060D  00A6               	movwf	??_main+1
  6092  060E  30B9               	movlw	185
  6093  060F  00A5               	movwf	??_main
  6094  0610                     u3617:	
  6095  0610  0BA5               	decfsz	??_main,f
  6096  0611  2E10               	goto	u3617
  6097  0612  0BA6               	decfsz	??_main+1,f
  6098  0613  2E10               	goto	u3617
  6099  0614  0BA7               	decfsz	??_main+2,f
  6100  0615  2E10               	goto	u3617
  6101  0616  2E17               	nop2
  6102                           
  6103                           ;mainbrew1double.c: 964: RA7 = 0;
  6104  0617  1283               	bcf	3,5	;RP0=0, select bank0
  6105  0618  1303               	bcf	3,6	;RP1=0, select bank0
  6106  0619  1385               	bcf	5,7	;volatile
  6107                           
  6108                           ;mainbrew1double.c: 965: _delay((unsigned long)((200)*(4000000/4000.0)));
  6109  061A  3002               	movlw	2
  6110  061B  1283               	bcf	3,5	;RP0=0, select bank0
  6111  061C  1303               	bcf	3,6	;RP1=0, select bank0
  6112  061D  00A7               	movwf	??_main+2
  6113  061E  3004               	movlw	4
  6114  061F  00A6               	movwf	??_main+1
  6115  0620  30B9               	movlw	185
  6116  0621  00A5               	movwf	??_main
  6117  0622                     u3627:	
  6118  0622  0BA5               	decfsz	??_main,f
  6119  0623  2E22               	goto	u3627
  6120  0624  0BA6               	decfsz	??_main+1,f
  6121  0625  2E22               	goto	u3627
  6122  0626  0BA7               	decfsz	??_main+2,f
  6123  0627  2E22               	goto	u3627
  6124  0628  2E29               	nop2
  6125                           
  6126                           ;mainbrew1double.c: 966: if(RC7)
  6127  0629  1283               	bcf	3,5	;RP0=0, select bank0
  6128  062A  1303               	bcf	3,6	;RP1=0, select bank0
  6129  062B  1B87               	btfsc	7,7	;volatile
  6130  062C  2D75               	goto	l2269
  6131  062D  2E05               	goto	l2831
  6132  062E                     l2843:	
  6133                           ;mainbrew1double.c: 969: }
  6134                           ;mainbrew1double.c: 970: }
  6135                           ;mainbrew1double.c: 971: }
  6136                           ;mainbrew1double.c: 975: }
  6137                           ;mainbrew1double.c: 977: pump:
  6138                           
  6139                           ;mainbrew1double.c: 967: {
  6140                           ;mainbrew1double.c: 968: goto intstart;
  6141                           
  6142                           
  6143                           ;mainbrew1double.c: 978: Lcd_Clear();
  6144  062E  120A  158A  2166  120A  118A  	fcall	_Lcd_Clear
  6145                           
  6146                           ;mainbrew1double.c: 979: Lcd_Set_Cursor(1,2);
  6147  0633  3002               	movlw	2
  6148  0634  1283               	bcf	3,5	;RP0=0, select bank0
  6149  0635  1303               	bcf	3,6	;RP1=0, select bank0
  6150  0636  00A5               	movwf	??_main
  6151  0637  0825               	movf	??_main,w
  6152  0638  00F4               	movwf	Lcd_Set_Cursor@b
  6153  0639  3001               	movlw	1
  6154  063A  120A  158A  23EB  120A  118A  	fcall	_Lcd_Set_Cursor
  6155                           
  6156                           ;mainbrew1double.c: 980: Lcd_Write_String("LOW Water");
  6157  063F  3045               	movlw	low (STR_30| (0+32768))
  6158  0640  00F5               	movwf	Lcd_Write_String@a
  6159  0641  3091               	movlw	high (STR_30| (0+32768))
  6160  0642  00F6               	movwf	Lcd_Write_String@a+1
  6161  0643  120A  158A  2371  120A  118A  	fcall	_Lcd_Write_String
  6162                           
  6163                           ;mainbrew1double.c: 981: Lcd_Set_Cursor(2,1);
  6164  0648  01F4               	clrf	Lcd_Set_Cursor@b
  6165  0649  0AF4               	incf	Lcd_Set_Cursor@b,f
  6166  064A  3002               	movlw	2
  6167  064B  120A  158A  23EB  120A  118A  	fcall	_Lcd_Set_Cursor
  6168                           
  6169                           ;mainbrew1double.c: 982: Lcd_Write_String("                ");
  6170  0650  3015               	movlw	low ((STR_23+1)| (0+32768))
  6171  0651  00F5               	movwf	Lcd_Write_String@a
  6172  0652  3090               	movlw	high ((STR_23+1)| (0+32768))
  6173  0653  00F6               	movwf	Lcd_Write_String@a+1
  6174  0654  120A  158A  2371  120A  118A  	fcall	_Lcd_Write_String
  6175  0659                     l2849:	
  6176                           ;mainbrew1double.c: 985: while(1)
  6177                           
  6178                           
  6179                           ;mainbrew1double.c: 986: {
  6180                           ;mainbrew1double.c: 988: Lcd_Set_Cursor(2,2);
  6181  0659  3002               	movlw	2
  6182  065A  1283               	bcf	3,5	;RP0=0, select bank0
  6183  065B  1303               	bcf	3,6	;RP1=0, select bank0
  6184  065C  00A5               	movwf	??_main
  6185  065D  0825               	movf	??_main,w
  6186  065E  00F4               	movwf	Lcd_Set_Cursor@b
  6187  065F  3002               	movlw	2
  6188  0660  120A  158A  23EB  120A  118A  	fcall	_Lcd_Set_Cursor
  6189                           
  6190                           ;mainbrew1double.c: 989: lcddisplay(timerup);
  6191  0665  1283               	bcf	3,5	;RP0=0, select bank0
  6192  0666  1303               	bcf	3,6	;RP1=0, select bank0
  6193  0667  086A               	movf	_timerup,w
  6194  0668  00A5               	movwf	??_main
  6195  0669  01A6               	clrf	??_main+1
  6196  066A  0825               	movf	??_main,w
  6197  066B  00F8               	movwf	lcddisplay@num
  6198  066C  0826               	movf	??_main+1,w
  6199  066D  00F9               	movwf	lcddisplay@num+1
  6200  066E  120A  118A  2003  120A  118A  	fcall	_lcddisplay
  6201                           
  6202                           ;mainbrew1double.c: 990: Lcd_Set_Cursor(2,6);
  6203  0673  3006               	movlw	6
  6204  0674  1283               	bcf	3,5	;RP0=0, select bank0
  6205  0675  1303               	bcf	3,6	;RP1=0, select bank0
  6206  0676  00A5               	movwf	??_main
  6207  0677  0825               	movf	??_main,w
  6208  0678  00F4               	movwf	Lcd_Set_Cursor@b
  6209  0679  3002               	movlw	2
  6210  067A  120A  158A  23EB  120A  118A  	fcall	_Lcd_Set_Cursor
  6211                           
  6212                           ;mainbrew1double.c: 991: lcddisplay(sec);
  6213  067F  1283               	bcf	3,5	;RP0=0, select bank0
  6214  0680  1303               	bcf	3,6	;RP1=0, select bank0
  6215  0681  0868               	movf	_sec+1,w
  6216  0682  00F9               	movwf	lcddisplay@num+1
  6217  0683  0867               	movf	_sec,w
  6218  0684  00F8               	movwf	lcddisplay@num
  6219  0685  120A  118A  2003  120A  118A  	fcall	_lcddisplay
  6220                           
  6221                           ;mainbrew1double.c: 992: if(T0IF)
  6222  068A  1D0B               	btfss	11,2	;volatile
  6223  068B  2F07               	goto	l330
  6224                           
  6225                           ;mainbrew1double.c: 993: {
  6226                           ;mainbrew1double.c: 994: T0IF = 0;
  6227  068C  110B               	bcf	11,2	;volatile
  6228                           
  6229                           ;mainbrew1double.c: 995: tcount++;
  6230  068D  3001               	movlw	1
  6231  068E  1283               	bcf	3,5	;RP0=0, select bank0
  6232  068F  1303               	bcf	3,6	;RP1=0, select bank0
  6233  0690  07C8               	addwf	main@tcount,f
  6234  0691  1803               	skipnc
  6235  0692  0AC9               	incf	main@tcount+1,f
  6236  0693  3000               	movlw	0
  6237  0694  07C9               	addwf	main@tcount+1,f
  6238                           
  6239                           ;mainbrew1double.c: 996: sec = tcount/15;
  6240  0695  300F               	movlw	15
  6241  0696  00F0               	movwf	___awdiv@divisor
  6242  0697  3000               	movlw	0
  6243  0698  00F1               	movwf	___awdiv@divisor+1
  6244  0699  0849               	movf	main@tcount+1,w
  6245  069A  00F3               	movwf	___awdiv@dividend+1
  6246  069B  0848               	movf	main@tcount,w
  6247  069C  00F2               	movwf	___awdiv@dividend
  6248  069D  120A  158A  2435  120A  118A  	fcall	___awdiv
  6249  06A2  0871               	movf	?___awdiv+1,w
  6250  06A3  1283               	bcf	3,5	;RP0=0, select bank0
  6251  06A4  1303               	bcf	3,6	;RP1=0, select bank0
  6252  06A5  00E8               	movwf	_sec+1
  6253  06A6  0870               	movf	?___awdiv,w
  6254  06A7  00E7               	movwf	_sec
  6255                           
  6256                           ;mainbrew1double.c: 998: if(tcount<915)
  6257  06A8  0849               	movf	main@tcount+1,w
  6258  06A9  3A80               	xorlw	128
  6259  06AA  00FF               	movwf	127
  6260  06AB  3083               	movlw	131
  6261  06AC  027F               	subwf	127,w
  6262  06AD  1D03               	skipz
  6263  06AE  2EB1               	goto	u3045
  6264  06AF  3093               	movlw	147
  6265  06B0  0248               	subwf	main@tcount,w
  6266  06B1                     u3045:	
  6267  06B1  1803               	skipnc
  6268  06B2  2EBA               	goto	l2871
  6269                           
  6270                           ;mainbrew1double.c: 999: {
  6271                           ;mainbrew1double.c: 1000: if(relayoff == 0)
  6272  06B3  1283               	bcf	3,5	;RP0=0, select bank0
  6273  06B4  1303               	bcf	3,6	;RP1=0, select bank0
  6274  06B5  086B               	movf	_relayoff,w
  6275  06B6  1D03               	btfss	3,2
  6276  06B7  2EBA               	goto	l2871
  6277                           
  6278                           ;mainbrew1double.c: 1001: {
  6279                           ;mainbrew1double.c: 1003: relayon=1;
  6280  06B8  01EC               	clrf	_relayon
  6281  06B9  0AEC               	incf	_relayon,f
  6282  06BA                     l2871:	
  6283                           
  6284                           ;mainbrew1double.c: 1004: }
  6285                           ;mainbrew1double.c: 1006: }
  6286                           ;mainbrew1double.c: 1007: if(tcount>916)
  6287  06BA  1283               	bcf	3,5	;RP0=0, select bank0
  6288  06BB  1303               	bcf	3,6	;RP1=0, select bank0
  6289  06BC  0849               	movf	main@tcount+1,w
  6290  06BD  3A80               	xorlw	128
  6291  06BE  00FF               	movwf	127
  6292  06BF  3083               	movlw	131
  6293  06C0  027F               	subwf	127,w
  6294  06C1  1D03               	skipz
  6295  06C2  2EC5               	goto	u3065
  6296  06C3  3095               	movlw	149
  6297  06C4  0248               	subwf	main@tcount,w
  6298  06C5                     u3065:	
  6299  06C5  1C03               	skipc
  6300  06C6  2ED1               	goto	l2879
  6301                           
  6302                           ;mainbrew1double.c: 1008: {
  6303                           ;mainbrew1double.c: 1009: if(relayoff == 1)
  6304  06C7  1283               	bcf	3,5	;RP0=0, select bank0
  6305  06C8  1303               	bcf	3,6	;RP1=0, select bank0
  6306  06C9  036B               	decf	_relayoff,w
  6307  06CA  1D03               	btfss	3,2
  6308  06CB  2ED1               	goto	l2879
  6309                           
  6310                           ;mainbrew1double.c: 1010: {
  6311                           ;mainbrew1double.c: 1011: timerup++;
  6312  06CC  3001               	movlw	1
  6313  06CD  00A5               	movwf	??_main
  6314  06CE  0825               	movf	??_main,w
  6315  06CF  07EA               	addwf	_timerup,f
  6316                           
  6317                           ;mainbrew1double.c: 1012: relayon=0;
  6318  06D0  01EC               	clrf	_relayon
  6319  06D1                     l2879:	
  6320                           
  6321                           ;mainbrew1double.c: 1013: }
  6322                           ;mainbrew1double.c: 1015: }
  6323                           ;mainbrew1double.c: 1016: if(tcount>=993)
  6324  06D1  1283               	bcf	3,5	;RP0=0, select bank0
  6325  06D2  1303               	bcf	3,6	;RP1=0, select bank0
  6326  06D3  0849               	movf	main@tcount+1,w
  6327  06D4  3A80               	xorlw	128
  6328  06D5  00FF               	movwf	127
  6329  06D6  3083               	movlw	131
  6330  06D7  027F               	subwf	127,w
  6331  06D8  1D03               	skipz
  6332  06D9  2EDC               	goto	u3085
  6333  06DA  30E1               	movlw	225
  6334  06DB  0248               	subwf	main@tcount,w
  6335  06DC                     u3085:	
  6336  06DC  1C03               	skipc
  6337  06DD  2EE2               	goto	l2883
  6338                           
  6339                           ;mainbrew1double.c: 1017: {
  6340                           ;mainbrew1double.c: 1019: tcount = 0;
  6341  06DE  1283               	bcf	3,5	;RP0=0, select bank0
  6342  06DF  1303               	bcf	3,6	;RP1=0, select bank0
  6343  06E0  01C8               	clrf	main@tcount
  6344  06E1  01C9               	clrf	main@tcount+1
  6345  06E2                     l2883:	
  6346                           
  6347                           ;mainbrew1double.c: 1022: }
  6348                           ;mainbrew1double.c: 1023: if((RC6)&&(RC7))
  6349  06E2  1283               	bcf	3,5	;RP0=0, select bank0
  6350  06E3  1303               	bcf	3,6	;RP1=0, select bank0
  6351  06E4  1B07               	btfsc	7,6	;volatile
  6352  06E5  1F87               	btfss	7,7	;volatile
  6353  06E6  2F07               	goto	l330
  6354                           
  6355                           ;mainbrew1double.c: 1024: {
  6356                           ;mainbrew1double.c: 1026: _delay((unsigned long)((1000)*(4000000/4000.0)));
  6357  06E7  3006               	movlw	6
  6358  06E8  1283               	bcf	3,5	;RP0=0, select bank0
  6359  06E9  1303               	bcf	3,6	;RP1=0, select bank0
  6360  06EA  00A7               	movwf	??_main+2
  6361  06EB  3013               	movlw	19
  6362  06EC  00A6               	movwf	??_main+1
  6363  06ED  30AD               	movlw	173
  6364  06EE  00A5               	movwf	??_main
  6365  06EF                     u3637:	
  6366  06EF  0BA5               	decfsz	??_main,f
  6367  06F0  2EEF               	goto	u3637
  6368  06F1  0BA6               	decfsz	??_main+1,f
  6369  06F2  2EEF               	goto	u3637
  6370  06F3  0BA7               	decfsz	??_main+2,f
  6371  06F4  2EEF               	goto	u3637
  6372                           
  6373                           ;mainbrew1double.c: 1027: if((RC6)&&(RC7))
  6374  06F5  1283               	bcf	3,5	;RP0=0, select bank0
  6375  06F6  1303               	bcf	3,6	;RP1=0, select bank0
  6376  06F7  1B07               	btfsc	7,6	;volatile
  6377  06F8  1F87               	btfss	7,7	;volatile
  6378  06F9  2D75               	goto	l2269
  6379                           
  6380                           ;mainbrew1double.c: 1028: {
  6381                           ;mainbrew1double.c: 1029: RA3 = 0;
  6382  06FA  1185               	bcf	5,3	;volatile
  6383                           
  6384                           ;mainbrew1double.c: 1030: tcount = 0;
  6385  06FB  01C8               	clrf	main@tcount
  6386  06FC  01C9               	clrf	main@tcount+1
  6387                           
  6388                           ;mainbrew1double.c: 1032: if(pump == 1)
  6389  06FD  0345               	decf	main@pump,w
  6390  06FE  1D03               	btfss	3,2
  6391  06FF  2D75               	goto	l2269
  6392                           
  6393                           ;mainbrew1double.c: 1033: {
  6394                           ;mainbrew1double.c: 1034: if(waterchk == 1)
  6395  0700  036E               	decf	_waterchk,w
  6396  0701  1D03               	btfss	3,2
  6397  0702  2F05               	goto	l2905
  6398                           
  6399                           ;mainbrew1double.c: 1035: {
  6400                           ;mainbrew1double.c: 1036: pump = 0;
  6401  0703  01C5               	clrf	main@pump
  6402                           
  6403                           ;mainbrew1double.c: 1037: goto ready;
  6404  0704  292C               	goto	l2473
  6405  0705                     l2905:	
  6406                           ;mainbrew1double.c: 1039: }
  6407                           
  6408                           
  6409                           ;mainbrew1double.c: 1040: else
  6410                           ;mainbrew1double.c: 1041: {
  6411                           ;mainbrew1double.c: 1042: pump = 0;
  6412  0705  01C5               	clrf	main@pump
  6413                           
  6414                           ;mainbrew1double.c: 1043: goto intwater;
  6415  0706  29DC               	goto	l2507
  6416  0707                     l330:	
  6417                           ;mainbrew1double.c: 1044: }
  6418                           ;mainbrew1double.c: 1045: }
  6419                           ;mainbrew1double.c: 1046: }
  6420                           ;mainbrew1double.c: 1047: goto intstart;
  6421                           
  6422                           
  6423                           ;mainbrew1double.c: 1050: }
  6424                           ;mainbrew1double.c: 1052: }
  6425                           ;mainbrew1double.c: 1053: if(RC7)
  6426  0707  1283               	bcf	3,5	;RP0=0, select bank0
  6427  0708  1303               	bcf	3,6	;RP1=0, select bank0
  6428  0709  1F87               	btfss	7,7	;volatile
  6429  070A  2F4B               	goto	l341
  6430                           
  6431                           ;mainbrew1double.c: 1054: {
  6432                           ;mainbrew1double.c: 1055: if(timerup == 1)
  6433  070B  036A               	decf	_timerup,w
  6434  070C  1D03               	btfss	3,2
  6435  070D  2F4B               	goto	l341
  6436  070E                     l343:	
  6437                           ;mainbrew1double.c: 1056: {
  6438                           ;mainbrew1double.c: 1057: while(1)
  6439                           
  6440                           
  6441                           ;mainbrew1double.c: 1058: {
  6442                           ;mainbrew1double.c: 1059: RA3 = 0;
  6443  070E  1185               	bcf	5,3	;volatile
  6444                           
  6445                           ;mainbrew1double.c: 1060: Lcd_Set_Cursor(1,2);
  6446  070F  3002               	movlw	2
  6447  0710  00A5               	movwf	??_main
  6448  0711  0825               	movf	??_main,w
  6449  0712  00F4               	movwf	Lcd_Set_Cursor@b
  6450  0713  3001               	movlw	1
  6451  0714  120A  158A  23EB  120A  118A  	fcall	_Lcd_Set_Cursor
  6452                           
  6453                           ;mainbrew1double.c: 1061: Lcd_Write_String("sensor1 fault");
  6454  0719  30D6               	movlw	low (STR_32| (0+32768))
  6455  071A  00F5               	movwf	Lcd_Write_String@a
  6456  071B  3090               	movlw	high (STR_32| (0+32768))
  6457  071C  00F6               	movwf	Lcd_Write_String@a+1
  6458  071D  120A  158A  2371  120A  118A  	fcall	_Lcd_Write_String
  6459                           
  6460                           ;mainbrew1double.c: 1062: RA7 = 1;
  6461  0722  1283               	bcf	3,5	;RP0=0, select bank0
  6462  0723  1303               	bcf	3,6	;RP1=0, select bank0
  6463  0724  1785               	bsf	5,7	;volatile
  6464                           
  6465                           ;mainbrew1double.c: 1063: _delay((unsigned long)((200)*(4000000/4000.0)));
  6466  0725  3002               	movlw	2
  6467  0726  1283               	bcf	3,5	;RP0=0, select bank0
  6468  0727  1303               	bcf	3,6	;RP1=0, select bank0
  6469  0728  00A7               	movwf	??_main+2
  6470  0729  3004               	movlw	4
  6471  072A  00A6               	movwf	??_main+1
  6472  072B  30B9               	movlw	185
  6473  072C  00A5               	movwf	??_main
  6474  072D                     u3647:	
  6475  072D  0BA5               	decfsz	??_main,f
  6476  072E  2F2D               	goto	u3647
  6477  072F  0BA6               	decfsz	??_main+1,f
  6478  0730  2F2D               	goto	u3647
  6479  0731  0BA7               	decfsz	??_main+2,f
  6480  0732  2F2D               	goto	u3647
  6481  0733  2F34               	nop2
  6482                           
  6483                           ;mainbrew1double.c: 1064: RA7 = 0;
  6484  0734  1283               	bcf	3,5	;RP0=0, select bank0
  6485  0735  1303               	bcf	3,6	;RP1=0, select bank0
  6486  0736  1385               	bcf	5,7	;volatile
  6487                           
  6488                           ;mainbrew1double.c: 1065: _delay((unsigned long)((200)*(4000000/4000.0)));
  6489  0737  3002               	movlw	2
  6490  0738  1283               	bcf	3,5	;RP0=0, select bank0
  6491  0739  1303               	bcf	3,6	;RP1=0, select bank0
  6492  073A  00A7               	movwf	??_main+2
  6493  073B  3004               	movlw	4
  6494  073C  00A6               	movwf	??_main+1
  6495  073D  30B9               	movlw	185
  6496  073E  00A5               	movwf	??_main
  6497  073F                     u3657:	
  6498  073F  0BA5               	decfsz	??_main,f
  6499  0740  2F3F               	goto	u3657
  6500  0741  0BA6               	decfsz	??_main+1,f
  6501  0742  2F3F               	goto	u3657
  6502  0743  0BA7               	decfsz	??_main+2,f
  6503  0744  2F3F               	goto	u3657
  6504  0745  2F46               	nop2
  6505                           
  6506                           ;mainbrew1double.c: 1066: if(RC6)
  6507  0746  1283               	bcf	3,5	;RP0=0, select bank0
  6508  0747  1303               	bcf	3,6	;RP1=0, select bank0
  6509  0748  1F07               	btfss	7,6	;volatile
  6510  0749  2F0E               	goto	l343
  6511                           
  6512                           ;mainbrew1double.c: 1067: {
  6513                           ;mainbrew1double.c: 1068: timerup = 0;
  6514  074A  01EA               	clrf	_timerup
  6515  074B                     l341:	
  6516                           ;mainbrew1double.c: 1069: break;
  6517                           
  6518                           
  6519                           ;mainbrew1double.c: 1071: }
  6520                           ;mainbrew1double.c: 1072: }
  6521                           ;mainbrew1double.c: 1073: }
  6522                           ;mainbrew1double.c: 1075: }
  6523                           ;mainbrew1double.c: 1076: if((RC6)&&(!RC7))
  6524  074B  1B07               	btfsc	7,6	;volatile
  6525  074C  1B87               	btfsc	7,7	;volatile
  6526  074D  2F8E               	goto	l2945
  6527                           
  6528                           ;mainbrew1double.c: 1077: {
  6529                           ;mainbrew1double.c: 1078: if(timerup == 1)
  6530  074E  036A               	decf	_timerup,w
  6531  074F  1D03               	btfss	3,2
  6532  0750  2F8E               	goto	l2945
  6533  0751                     l349:	
  6534                           ;mainbrew1double.c: 1079: {
  6535                           ;mainbrew1double.c: 1080: while(1)
  6536                           
  6537                           
  6538                           ;mainbrew1double.c: 1081: {
  6539                           ;mainbrew1double.c: 1082: RA3 = 0;
  6540  0751  1185               	bcf	5,3	;volatile
  6541                           
  6542                           ;mainbrew1double.c: 1083: Lcd_Set_Cursor(1,2);
  6543  0752  3002               	movlw	2
  6544  0753  00A5               	movwf	??_main
  6545  0754  0825               	movf	??_main,w
  6546  0755  00F4               	movwf	Lcd_Set_Cursor@b
  6547  0756  3001               	movlw	1
  6548  0757  120A  158A  23EB  120A  118A  	fcall	_Lcd_Set_Cursor
  6549                           
  6550                           ;mainbrew1double.c: 1084: Lcd_Write_String("sensor2 fault");
  6551  075C  30E4               	movlw	low (STR_33| (0+32768))
  6552  075D  00F5               	movwf	Lcd_Write_String@a
  6553  075E  3090               	movlw	high (STR_33| (0+32768))
  6554  075F  00F6               	movwf	Lcd_Write_String@a+1
  6555  0760  120A  158A  2371  120A  118A  	fcall	_Lcd_Write_String
  6556                           
  6557                           ;mainbrew1double.c: 1085: RA7 = 1;
  6558  0765  1283               	bcf	3,5	;RP0=0, select bank0
  6559  0766  1303               	bcf	3,6	;RP1=0, select bank0
  6560  0767  1785               	bsf	5,7	;volatile
  6561                           
  6562                           ;mainbrew1double.c: 1086: _delay((unsigned long)((200)*(4000000/4000.0)));
  6563  0768  3002               	movlw	2
  6564  0769  1283               	bcf	3,5	;RP0=0, select bank0
  6565  076A  1303               	bcf	3,6	;RP1=0, select bank0
  6566  076B  00A7               	movwf	??_main+2
  6567  076C  3004               	movlw	4
  6568  076D  00A6               	movwf	??_main+1
  6569  076E  30B9               	movlw	185
  6570  076F  00A5               	movwf	??_main
  6571  0770                     u3667:	
  6572  0770  0BA5               	decfsz	??_main,f
  6573  0771  2F70               	goto	u3667
  6574  0772  0BA6               	decfsz	??_main+1,f
  6575  0773  2F70               	goto	u3667
  6576  0774  0BA7               	decfsz	??_main+2,f
  6577  0775  2F70               	goto	u3667
  6578  0776  2F77               	nop2
  6579                           
  6580                           ;mainbrew1double.c: 1087: RA7 = 0;
  6581  0777  1283               	bcf	3,5	;RP0=0, select bank0
  6582  0778  1303               	bcf	3,6	;RP1=0, select bank0
  6583  0779  1385               	bcf	5,7	;volatile
  6584                           
  6585                           ;mainbrew1double.c: 1088: _delay((unsigned long)((200)*(4000000/4000.0)));
  6586  077A  3002               	movlw	2
  6587  077B  1283               	bcf	3,5	;RP0=0, select bank0
  6588  077C  1303               	bcf	3,6	;RP1=0, select bank0
  6589  077D  00A7               	movwf	??_main+2
  6590  077E  3004               	movlw	4
  6591  077F  00A6               	movwf	??_main+1
  6592  0780  30B9               	movlw	185
  6593  0781  00A5               	movwf	??_main
  6594  0782                     u3677:	
  6595  0782  0BA5               	decfsz	??_main,f
  6596  0783  2F82               	goto	u3677
  6597  0784  0BA6               	decfsz	??_main+1,f
  6598  0785  2F82               	goto	u3677
  6599  0786  0BA7               	decfsz	??_main+2,f
  6600  0787  2F82               	goto	u3677
  6601  0788  2F89               	nop2
  6602                           
  6603                           ;mainbrew1double.c: 1089: if(RC7)
  6604  0789  1283               	bcf	3,5	;RP0=0, select bank0
  6605  078A  1303               	bcf	3,6	;RP1=0, select bank0
  6606  078B  1F87               	btfss	7,7	;volatile
  6607  078C  2F51               	goto	l349
  6608                           
  6609                           ;mainbrew1double.c: 1090: {
  6610                           ;mainbrew1double.c: 1091: timerup = 0;
  6611  078D  01EA               	clrf	_timerup
  6612  078E                     l2945:	
  6613                           ;mainbrew1double.c: 1092: break;
  6614                           
  6615                           
  6616                           ;mainbrew1double.c: 1094: }
  6617                           ;mainbrew1double.c: 1095: }
  6618                           ;mainbrew1double.c: 1096: }
  6619                           ;mainbrew1double.c: 1097: }
  6620                           ;mainbrew1double.c: 1099: if((timerup==3)&&(waterflag == 1))
  6621  078E  3003               	movlw	3
  6622  078F  066A               	xorwf	_timerup,w
  6623  0790  1D03               	btfss	3,2
  6624  0791  2FE6               	goto	l2979
  6625  0792  036D               	decf	_waterflag,w
  6626  0793  1D03               	btfss	3,2
  6627  0794  2FE6               	goto	l2979
  6628  0795                     l2949:	
  6629                           ;mainbrew1double.c: 1100: {
  6630                           ;mainbrew1double.c: 1102: while(1)
  6631                           
  6632                           
  6633                           ;mainbrew1double.c: 1103: {
  6634                           ;mainbrew1double.c: 1104: timerup=0;
  6635  0795  01EA               	clrf	_timerup
  6636                           
  6637                           ;mainbrew1double.c: 1105: tcount = 0;
  6638  0796  01C8               	clrf	main@tcount
  6639  0797  01C9               	clrf	main@tcount+1
  6640                           
  6641                           ;mainbrew1double.c: 1106: Lcd_Set_Cursor(1,2);
  6642  0798  3002               	movlw	2
  6643  0799  00A5               	movwf	??_main
  6644  079A  0825               	movf	??_main,w
  6645  079B  00F4               	movwf	Lcd_Set_Cursor@b
  6646  079C  3001               	movlw	1
  6647  079D  120A  158A  23EB  120A  118A  	fcall	_Lcd_Set_Cursor
  6648                           
  6649                           ;mainbrew1double.c: 1107: Lcd_Write_String("pump fault");
  6650  07A2  3030               	movlw	low (STR_34| (0+32768))
  6651  07A3  00F5               	movwf	Lcd_Write_String@a
  6652  07A4  3091               	movlw	high (STR_34| (0+32768))
  6653  07A5  00F6               	movwf	Lcd_Write_String@a+1
  6654  07A6  120A  158A  2371  120A  118A  	fcall	_Lcd_Write_String
  6655                           
  6656                           ;mainbrew1double.c: 1108: Lcd_Set_Cursor(2,2);
  6657  07AB  3002               	movlw	2
  6658  07AC  1283               	bcf	3,5	;RP0=0, select bank0
  6659  07AD  1303               	bcf	3,6	;RP1=0, select bank0
  6660  07AE  00A5               	movwf	??_main
  6661  07AF  0825               	movf	??_main,w
  6662  07B0  00F4               	movwf	Lcd_Set_Cursor@b
  6663  07B1  3002               	movlw	2
  6664  07B2  120A  158A  23EB  120A  118A  	fcall	_Lcd_Set_Cursor
  6665                           
  6666                           ;mainbrew1double.c: 1109: Lcd_Write_String("caution!!!!!");
  6667  07B7  30FF               	movlw	low (STR_35| (0+32768))
  6668  07B8  00F5               	movwf	Lcd_Write_String@a
  6669  07B9  3090               	movlw	high (STR_35| (0+32768))
  6670  07BA  00F6               	movwf	Lcd_Write_String@a+1
  6671  07BB  120A  158A  2371  120A  118A  	fcall	_Lcd_Write_String
  6672                           
  6673                           ;mainbrew1double.c: 1110: RA7 = 1;
  6674  07C0  1283               	bcf	3,5	;RP0=0, select bank0
  6675  07C1  1303               	bcf	3,6	;RP1=0, select bank0
  6676  07C2  1785               	bsf	5,7	;volatile
  6677                           
  6678                           ;mainbrew1double.c: 1111: _delay((unsigned long)((100)*(4000000/4000.0)));
  6679  07C3  3082               	movlw	130
  6680  07C4  1283               	bcf	3,5	;RP0=0, select bank0
  6681  07C5  1303               	bcf	3,6	;RP1=0, select bank0
  6682  07C6  00A6               	movwf	??_main+1
  6683  07C7  30DD               	movlw	221
  6684  07C8  00A5               	movwf	??_main
  6685  07C9                     u3687:	
  6686  07C9  0BA5               	decfsz	??_main,f
  6687  07CA  2FC9               	goto	u3687
  6688  07CB  0BA6               	decfsz	??_main+1,f
  6689  07CC  2FC9               	goto	u3687
  6690                           
  6691                           ;mainbrew1double.c: 1112: RA7 = 0;
  6692  07CD  1283               	bcf	3,5	;RP0=0, select bank0
  6693  07CE  1303               	bcf	3,6	;RP1=0, select bank0
  6694  07CF  1385               	bcf	5,7	;volatile
  6695                           
  6696                           ;mainbrew1double.c: 1113: _delay((unsigned long)((50)*(4000000/4000.0)));
  6697  07D0  3041               	movlw	65
  6698  07D1  1283               	bcf	3,5	;RP0=0, select bank0
  6699  07D2  1303               	bcf	3,6	;RP1=0, select bank0
  6700  07D3  00A6               	movwf	??_main+1
  6701  07D4  30ED               	movlw	237
  6702  07D5  00A5               	movwf	??_main
  6703  07D6                     u3697:	
  6704  07D6  0BA5               	decfsz	??_main,f
  6705  07D7  2FD6               	goto	u3697
  6706  07D8  0BA6               	decfsz	??_main+1,f
  6707  07D9  2FD6               	goto	u3697
  6708  07DA  2FDB               	nop2
  6709                           
  6710                           ;mainbrew1double.c: 1114: RC0 = 0;
  6711  07DB  1283               	bcf	3,5	;RP0=0, select bank0
  6712  07DC  1303               	bcf	3,6	;RP1=0, select bank0
  6713  07DD  1007               	bcf	7,0	;volatile
  6714                           
  6715                           ;mainbrew1double.c: 1115: RA1 = 0;
  6716  07DE  1085               	bcf	5,1	;volatile
  6717                           
  6718                           ;mainbrew1double.c: 1116: RA3 = 0;
  6719  07DF  1185               	bcf	5,3	;volatile
  6720                           
  6721                           ;mainbrew1double.c: 1117: if(RC7)
  6722  07E0  1F87               	btfss	7,7	;volatile
  6723  07E1  2F95               	goto	l2949
  6724                           
  6725                           ;mainbrew1double.c: 1118: {
  6726                           ;mainbrew1double.c: 1119: timerup = 0;
  6727  07E2  01EA               	clrf	_timerup
  6728                           
  6729                           ;mainbrew1double.c: 1120: pumpfail = 1;
  6730  07E3  01E9               	clrf	_pumpfail
  6731  07E4  0AE9               	incf	_pumpfail,f
  6732                           
  6733                           ;mainbrew1double.c: 1121: goto ready;
  6734  07E5  292C               	goto	l2473
  6735  07E6                     l2979:	
  6736                           
  6737                           ;mainbrew1double.c: 1122: }
  6738                           ;mainbrew1double.c: 1123: }
  6739                           ;mainbrew1double.c: 1124: }
  6740                           ;mainbrew1double.c: 1125: if(relayon == 1)
  6741  07E6  036C               	decf	_relayon,w
  6742  07E7  1D03               	btfss	3,2
  6743  07E8  2FEC               	goto	l2983
  6744                           
  6745                           ;mainbrew1double.c: 1126: {
  6746                           ;mainbrew1double.c: 1127: RA3 = 1;
  6747  07E9  1585               	bsf	5,3	;volatile
  6748                           
  6749                           ;mainbrew1double.c: 1128: relayoff = 1;
  6750  07EA  01EB               	clrf	_relayoff
  6751  07EB  0AEB               	incf	_relayoff,f
  6752  07EC                     l2983:	
  6753                           
  6754                           ;mainbrew1double.c: 1129: }
  6755                           ;mainbrew1double.c: 1130: if(relayon == 0)
  6756  07EC  086C               	movf	_relayon,w
  6757  07ED  1D03               	btfss	3,2
  6758  07EE  2E59               	goto	l2849
  6759                           
  6760                           ;mainbrew1double.c: 1131: {
  6761                           ;mainbrew1double.c: 1132: RA3 = 0;
  6762  07EF  1185               	bcf	5,3	;volatile
  6763                           
  6764                           ;mainbrew1double.c: 1133: relayoff = 0;
  6765  07F0  01EB               	clrf	_relayoff
  6766  07F1  2E59               	goto	l2849
  6767  07F2                     L11:	
  6768  07F2                     __end_of_main:	
  6769  07F2  120A  158A  2FF7   	ljmp	l2387


Data Sizes:
    Strings     376
    Constant    0
    Data        0
    BSS         35
    Persistent  0
    Stack       0

Auto Spaces:
    Space          Size  Autos    Used
    COMMON           14     14      14
    BANK0            80     45      80
    BANK1            80      0       0
    BANK3            96      0       0
    BANK2            96      0       0

Pointer List with Targets:

    Lcd_Write_String@a	PTR const unsigned char  size(2) Largest target is 20
		 -> STR_35(CODE[13]), STR_34(CODE[11]), STR_33(CODE[14]), STR_32(CODE[14]), 
		 -> STR_31(CODE[17]), STR_30(CODE[10]), STR_29(CODE[16]), STR_28(CODE[15]), 
		 -> STR_27(CODE[17]), STR_26(CODE[16]), STR_25(CODE[17]), STR_24(CODE[16]), 
		 -> STR_23(CODE[18]), STR_22(CODE[20]), STR_21(CODE[9]), STR_20(CODE[5]), 
		 -> STR_19(CODE[2]), STR_18(CODE[13]), STR_17(CODE[2]), STR_16(CODE[17]), 
		 -> STR_15(CODE[9]), STR_14(CODE[15]), STR_13(CODE[16]), STR_12(CODE[15]), 
		 -> STR_11(CODE[9]), STR_10(CODE[10]), STR_9(CODE[4]), STR_8(CODE[11]), 
		 -> STR_7(CODE[15]), STR_6(CODE[3]), STR_5(CODE[17]), STR_4(CODE[17]), 
		 -> STR_3(CODE[17]), STR_2(CODE[13]), STR_1(CODE[12]), 


Critical Paths under _main in COMMON

    _main->_Write_EEPROM
    _main->_checktemp
    _lcddisplay->___lwdiv
    _checktemp->_read
    _checktemp->_write
    _Write_EEPROM->_eeprom_write
    _eeprom_write->___lwdiv
    _Read_EEPROM->___wmul
    _Lcd_Write_String->_Lcd_Write_Char
    _Lcd_Write_Char->_Lcd_Port
    _Lcd_Set_Cursor->_Lcd_Cmd
    _Lcd_Init->_Lcd_Cmd
    _Lcd_Clear->_Lcd_Cmd
    _Lcd_Cmd->_Lcd_Port

Critical Paths under _main in BANK0

    _main->_Read_EEPROM

Critical Paths under _main in BANK1

    None.

Critical Paths under _main in BANK3

    None.

Critical Paths under _main in BANK2

    None.

Call Graph Tables:

 ---------------------------------------------------------------------------------
 (Depth) Function   	        Calls       Base Space   Used Autos Params    Refs
 ---------------------------------------------------------------------------------
 (0) _main                                                40    40      0   10232
                                              5 BANK0     40    40      0
                          _Lcd_Clear
                           _Lcd_Init
                     _Lcd_Set_Cursor
                     _Lcd_Write_Char
                   _Lcd_Write_String
                        _Read_EEPROM
                       _Write_EEPROM
                            ___awdiv
                          _checktemp
                         _lcddisplay
 ---------------------------------------------------------------------------------
 (1) _lcddisplay                                           2     0      2    1285
                                              8 COMMON     2     0      2
                     _Lcd_Write_Char
                            ___lwdiv
                            ___lwmod
 ---------------------------------------------------------------------------------
 (1) _checktemp                                           10     8      2     301
                                              4 COMMON    10     8      2
                               _read
                              _reset
                              _write
 ---------------------------------------------------------------------------------
 (2) _write                                                4     4      0     113
                                              0 COMMON     4     4      0
 ---------------------------------------------------------------------------------
 (2) _reset                                                1     1      0       0
                                              0 COMMON     1     1      0
 ---------------------------------------------------------------------------------
 (2) _read                                                 4     4      0      92
                                              0 COMMON     4     4      0
 ---------------------------------------------------------------------------------
 (1) ___awdiv                                              9     5      4     406
                                              0 COMMON     9     5      4
 ---------------------------------------------------------------------------------
 (1) _Write_EEPROM                                         5     2      3    1513
                                             11 COMMON     3     0      3
                                              0 BANK0      2     2      0
                            ___lwdiv
                            ___lwmod
                       _eeprom_write
 ---------------------------------------------------------------------------------
 (2) _eeprom_write                                         3     2      1     150
                                              8 COMMON     3     2      1
                            ___lwdiv (ARG)
                            ___lwmod (ARG)
 ---------------------------------------------------------------------------------
 (2) ___lwmod                                              6     2      4     371
                                              0 COMMON     6     2      4
 ---------------------------------------------------------------------------------
 (2) ___lwdiv                                              8     4      4     374
                                              0 COMMON     8     4      4
 ---------------------------------------------------------------------------------
 (1) _Read_EEPROM                                          9     7      2     789
                                              6 COMMON     4     2      2
                                              0 BANK0      5     5      0
                             ___wmul
                        _eeprom_read
 ---------------------------------------------------------------------------------
 (2) _eeprom_read                                          2     2      0      22
                                              0 COMMON     2     2      0
 ---------------------------------------------------------------------------------
 (2) ___wmul                                               6     2      4     198
                                              0 COMMON     6     2      4
 ---------------------------------------------------------------------------------
 (1) _Lcd_Write_String                                     7     5      2    2123
                                              5 COMMON     7     5      2
                     _Lcd_Write_Char
 ---------------------------------------------------------------------------------
 (2) _Lcd_Write_Char                                       4     4      0     178
                                              1 COMMON     4     4      0
                           _Lcd_Port
 ---------------------------------------------------------------------------------
 (1) _Lcd_Set_Cursor                                       7     6      1    2447
                                              4 COMMON     7     6      1
                            _Lcd_Cmd
 ---------------------------------------------------------------------------------
 (1) _Lcd_Init                                             2     2      0     198
                                              4 COMMON     2     2      0
                            _Lcd_Cmd
                           _Lcd_Port
 ---------------------------------------------------------------------------------
 (1) _Lcd_Clear                                            0     0      0     110
                            _Lcd_Cmd
 ---------------------------------------------------------------------------------
 (2) _Lcd_Cmd                                              3     3      0     110
                                              1 COMMON     3     3      0
                           _Lcd_Port
 ---------------------------------------------------------------------------------
 (3) _Lcd_Port                                             1     1      0      88
                                              0 COMMON     1     1      0
 ---------------------------------------------------------------------------------
 Estimated maximum stack depth 3
 ---------------------------------------------------------------------------------

 Call Graph Graphs:

 _main (ROOT)
   _Lcd_Clear
     _Lcd_Cmd
       _Lcd_Port
   _Lcd_Init
     _Lcd_Cmd
       _Lcd_Port
     _Lcd_Port
   _Lcd_Set_Cursor
     _Lcd_Cmd
       _Lcd_Port
   _Lcd_Write_Char
     _Lcd_Port
   _Lcd_Write_String
     _Lcd_Write_Char
       _Lcd_Port
   _Read_EEPROM
     ___wmul
     _eeprom_read
   _Write_EEPROM
     ___lwdiv
     ___lwmod
     _eeprom_write
       ___lwdiv (ARG)
       ___lwmod (ARG)
   ___awdiv
   _checktemp
     _read
     _reset
     _write
   _lcddisplay
     _Lcd_Write_Char
       _Lcd_Port
     ___lwdiv
     ___lwmod

 Address spaces:
Name               Size   Autos  Total    Cost      Usage
BITCOMMON            E      0       0       0        0.0%
EEDATA             100      0       0       0        0.0%
NULL                 0      0       0       0        0.0%
CODE                 0      0       0       0        0.0%
COMMON               E      E       E       1      100.0%
BITSFR0              0      0       0       1        0.0%
SFR0                 0      0       0       1        0.0%
BITSFR1              0      0       0       2        0.0%
SFR1                 0      0       0       2        0.0%
STACK                0      0       0       2        0.0%
ABS                  0      0      5E       3        0.0%
BITBANK0            50      0       0       4        0.0%
BITSFR3              0      0       0       4        0.0%
SFR3                 0      0       0       4        0.0%
BANK0               50     2D      50       5      100.0%
BITSFR2              0      0       0       5        0.0%
SFR2                 0      0       0       5        0.0%
BITBANK1            50      0       0       6        0.0%
BANK1               50      0       0       7        0.0%
BITBANK3            60      0       0       8        0.0%
BANK3               60      0       0       9        0.0%
BITBANK2            60      0       0      10        0.0%
BANK2               60      0       0      11        0.0%
DATA                 0      0      5E      12        0.0%


Microchip Technology PIC Macro Assembler V1.44 build -154322312 
Symbol Table                                                                                   Thu Dec 21 17:53:30 2017

                        pc 0002                __CFG_CP$OFF 0000                         _RD 0C60  
                       _WR 0C61               ___awdiv@sign 0076                         fsr 0004  
      ___wmul@multiplicand 0072                        l110 097B                        l111 097F  
                      l112 0980                        l113 0984                        l114 0985  
                      l115 0989                        l204 0F2A                        l109 0978  
                      l221 0CAF                        l151 0BD8                        l231 0131  
                      l232 0172                        l224 0D09                        l208 0F34  
                      l313 05F0                        l233 016F                        l330 0707  
                      l315 05C1                        l156 0A67                        l341 074B  
                      l237 0174                        l343 070E                        l192 0EEB  
                      l193 0EE8                        l282 03DA                        l267 0385  
                      l349 0751                        l278 03DC                        l198 0EF5  
                      l377 09A6                        l289 0419                        l399 0A07  
                      l489 09CA                        _GIE 005F                        _RA0 0028  
                      _RA1 0029                        _RB0 0030                        _RA2 002A  
                      _RB1 0031                        _RA3 002B                        _RB2 0032  
                      _RC0 0038                        _RB3 0033                        _RB4 0034  
                      _RC3 003B                        _RA7 002F                        _RB5 0035  
                      _RC4 003C                        _RB6 0036                        _RC5 003D  
                      _RB7 0037                        _RC6 003E                        _RC7 003F  
             __CFG_CPD$OFF 0000                        _sec 0067                        fsr0 0004  
                      indf 0000      __size_of_Write_EEPROM 0034                main@checkte 0030  
             __CFG_LVP$OFF 0000                       l2101 0A40                       l2005 0BE6  
                     l2023 0A8F                       l2105 0A4E                       l2201 0C3F  
                     l2019 0A82                       l2125 0C10                       l2053 09C2  
                     l2109 0A59                       l2151 0B73                       l2207 0C4A  
                     l2233 0C89                       l2225 0C76                       l2217 0C52  
                     l2083 0B61                       l2075 0B3D                       l2219 0C60  
                     l2411 0CA7                       l2403 0C8E                       l2315 0EDC  
                     l2077 0B4B                       l2229 0C81                       l2173 00DD  
                     l2341 0F45                       l2333 0F18                       l2325 0EF8  
                     l2309 0EB1                       l2087 0B6C                       l2175 00DF  
                     l2407 0C95                       l2601 032D                       l2505 01BE  
                     l2273 0E20                       l2099 0A32                       l2507 01DC  
                     l2355 0F58                       l2605 0341                       l2541 0225  
                     l2533 0208                       l2517 01DF                       l2509 042C  
                     l2381 0FCF                       l2269 0575                       l2607 0346  
                     l2471 0128                       l2625 0370                       l2617 035C  
                     l2537 021A                       l2561 027B                       l2457 00E4  
                     l2377 0FC9                       l2473 012C                       l2651 03AB  
                     l2627 0371                       l2707 0492                       l2491 017B  
                     l2387 0FF7                       l2379 0FCC                       l2299 0E96  
                     l2725 04C1                       l2493 019F                       l2389 0CC0  
                     l2831 0605                       l2807 05C8                       l2743 04EE  
                     l2663 03CD                       l2905 0705                       l2809 05C9  
                     l2817 05E7                       l2819 05EC                       l2683 040C  
                     l2843 062E                       l2747 04F7                       l1981 09FF  
                     l2773 052B                       l2871 06BA                       l2945 078E  
                     l2849 0659                       l2689 041B                       l2883 06E2  
                     l2795 05B1                       l2949 0795                       l2983 07EC  
                     l2879 06D1                       l2799 05B4                       l2979 07E6  
                     STR_1 1119                       STR_2 110C                       STR_3 1026  
                     STR_4 1048                       STR_5 1037                       STR_6 1173  
                     STR_7 10B8                       STR_8 1125                       STR_9 116F  
                     _T0IF 005A                       u2005 0BF7                       u2025 0C1C  
                     u2105 0C55                       u2125 0C61                       u2135 0C6D  
                     u2145 0C77                       u3045 06B1                       u2405 0D57  
                     u3065 06C5                       u1714 0BC1                       u1715 0BBF  
                     u3307 0F24                       u2195 0E34                       u3085 06DC  
                     u2605 0339                       u2525 0445                       u3317 0F40  
                     u2535 01EB                       u3407 0D45                       u3327 0F81  
                     u1905 0B58                       u2625 0353                       u3417 0D7C  
                     u3337 0F91                       u1835 09CB                       u1915 0B62  
                     u3507 03E7                       u2555 0212                       u3427 0D8C  
                     u3347 0FA0                       u1764 0A7B                       u1685 0AD6  
                     u1845 09D2                       u1765 0A79                       u3517 041F  
                     u3437 0D9B                       u3357 0FB0                       u3277 0E62  
                     u3607 05D0                       u3527 0478                       u2655 0367  
                     u2575 0274                       u3447 0DAB                       u3367 0FBF  
                     u3287 0E73                       u1945 0A35                       u3617 0610  
                     u3537 048A                       u2585 0322                       u3457 0DBA  
                     u3377 0FF1                       u3297 0EA3                       u1875 0B40  
                     u3707 00A1                       u3627 0622                       u2915 0514  
                     u3547 04A3                       u3467 0245                       u3387 0CA1  
                     u1965 0A46                       u3717 0BD4                       u3637 06EF  
                     u3557 04D0                       u3477 0262                       u3397 0CBB  
                     u3807 0034                       u1895 0B4C                       u1975 0A4F  
                     u3727 0BE0                       u3647 072D                       u3567 051E  
                     u3487 0378                       u3817 0043                       u3737 09E9  
                     u3657 073F                       u3577 055C                       u3497 03B8  
                     u3827 0051                       u3747 09F1                       u3667 0770  
                     u3587 056E                       u3837 099C                       u3757 09FA  
                     u3677 0782                       u2965 05BF                       u3597 0599  
                     u3767 0A01                       u3687 07C9                       u3777 0A84  
                     u3697 07D6                       u3787 0AE6                       u2995 05E5  
                     u3797 0AF6                       _TMR0 0001                       _WREN 0C62  
                     _WPUB 0095             ??_eeprom_write 0079                main@current 0043  
             __CFG_WRT$OFF 0000          ?_Lcd_Write_String 0075                       _pgm1 005B  
                     _main 0DCA                       _read 0A5E                       btemp 007E  
            ??_Read_EEPROM 0078              __CFG_BOREN$ON 0000                       start 0000  
       ??_Lcd_Write_String 0077              __CFG_IESO$OFF 0000            __end_of_Lcd_Cmd 09A5  
             _Write_EEPROM 0A91                      ?_main 0070                      ?_read 0070  
          __end_of___awdiv 0C8E                      _EEADR 010D                      STR_10 113B  
                    STR_11 1161                      STR_20 116A                      STR_12 10A9  
                    STR_21 1158                      STR_13 108A                      STR_30 1145  
                    STR_14 109A                      STR_22 1000                      STR_31 1015  
                    STR_15 114F                      STR_23 1014                      STR_32 10D6  
                    STR_24 106A                      STR_16 1059                      STR_17 1024  
                    STR_25 1015                      STR_33 10E4              __CFG_WDTE$OFF 0000  
                    STR_26 106A                      STR_34 1130                      STR_18 10F2  
                    STR_27 1015                      STR_19 1176                      STR_35 10FF  
                    STR_28 10C7                      STR_29 107A                      _CARRY 0018  
                    _ANSEL 0188            ___awdiv@divisor 0070            __end_of___lwdiv 0B71  
          __end_of___lwmod 0A5E            ___awdiv@counter 0075    __size_of_Lcd_Set_Cursor 004A  
                    _TRISA 0085                      _TRISB 0086                      _TRISC 0087  
           __CFG_FCMEN$OFF 0000                      _flag1 0057                      _flag2 0055  
                    _flag4 0053                      _flag5 0051                      _flag6 004F  
                    _flag7 004D               main@password 004A                      _level 006F  
                    _reset 09E1                      main@i 003D                      main@j 0034  
                    main@l 003B                      main@p 0038                      _strky 005D  
                    _write 0BAE                      read@i 0073                      pclath 000A  
             main@powerval 0046                      status 0003                      wtemp0 007E  
         __end_of_Lcd_Init 0085           __end_of_Lcd_Port 098B             __CFG_MCLRE$OFF 0000  
          __initialization 07F5               __end_of_main 07F2               __end_of_read 0A91  
      __end_of_Read_EEPROM 0B35                     ??_main 0025                     ??_read 0070  
       __size_of_Lcd_Clear 000B             Write_EEPROM@a1 0021             Write_EEPROM@a2 007B  
                   _EEDATA 010C                     _EECON1 018C                     _EECON2 018D  
                   ?_reset 0070           ___awdiv@dividend 0072                     _ANSELH 0189  
                   ?_write 0070                  ??_Lcd_Cmd 0071    __size_of_Lcd_Write_Char 0037  
                   _TRISC3 043B             __CFG_PWRTE$OFF 0000       __size_of_eeprom_read 001B  
                   ___wmul 09C0                  ??___awdiv 0074                  ??___lwdiv 0074  
                ??___lwmod 0074           ___awdiv@quotient 0077                     _lowval 0063  
                   _sensor 0059       __end_of_eeprom_write 0A2C              main@tempflag1 002E  
            main@tempflag2 0036              lcddisplay@num 0078                     write@i 0073  
          Lcd_Set_Cursor@a 0077            Lcd_Set_Cursor@b 0074            Lcd_Set_Cursor@y 0079  
          Lcd_Set_Cursor@z 0078    __end_of__initialization 07FC              main@switchsel 0028  
          eeprom_read@addr 0071          __end_of_Lcd_Clear 0971                _Read_EEPROM 0AFC  
           __pcstackCOMMON 0070              __end_of_reset 0A06         __size_of_checktemp 005F  
            __end_of_write 0BEB             _Lcd_Set_Cursor 0BEB          eeprom_write@value 0078  
                ?_Lcd_Init 0070                  ?_Lcd_Port 0070                    ??_reset 0070  
                  ??_write 0070                 __pbssBANK0 004D              Read_EEPROM@b1 0020  
            Read_EEPROM@b2 0076              Read_EEPROM@c1 0021              Read_EEPROM@c2 0023  
               __pmaintext 0DCA                    ?___wmul 0070  __size_of_Lcd_Write_String 003D  
   __end_of_Lcd_Set_Cursor 0C35                 ??_Lcd_Init 0074                 ??_Lcd_Port 0070  
               _lcddisplay 0003              checktemp@temp 007C                 __stringtab 0800  
        __end_of_checktemp 00E4             _Lcd_Write_Char 0AC5                    _Lcd_Cmd 098B  
    __size_of_eeprom_write 0026                    ___awdiv 0C35            __size_of___wmul 0021  
                  ___lwdiv 0B35                    ___lwmod 0A2C            ?_Lcd_Set_Cursor 0074  
                  __ptext1 0003                    __ptext2 0085                    __ptext3 0BAE  
                  __ptext4 09E1                    __ptext5 0A5E                    __ptext6 0C35  
                  __ptext7 0A91                    __ptext8 0A06                    __ptext9 0A2C  
                  _highval 0065                    _relayon 006C                    _tempval 0061  
                  _timerup 006A                    clrloop0 095F                    main@prg 002A  
   __end_of_Lcd_Write_Char 0AFC       end_of_initialization 07FC               _eeprom_write 0A06  
                  psplit$0 A001F                    psplit$1 1F0020                  Lcd_Port@a 0070  
             __pstringtext 1000       pnum$maintext_split_1 001F       pnum$maintext_split_2 0020  
              ?_lcddisplay 0078            ?_Lcd_Write_Char 0070          Lcd_Write_String@a 0075  
        Lcd_Write_String@i 007A              ??_eeprom_read 0070               ?_Read_EEPROM 0076  
               main@tcount 0048                 main@wcount 004C                  _Lcd_Clear 0966  
           __end_of___wmul 09E1           _Lcd_Write_String 0B71        start_initialization 07F5  
        __size_of_Lcd_Init 005B          __size_of_Lcd_Port 001A                 read@result 0072  
 __CFG_FOSC$INTRC_NOCLKOUT 0000                 ?_Lcd_Clear 0070                   ??___wmul 0074  
      __end_of_eeprom_read 09C0              ?_Write_EEPROM 007B        __size_of_lcddisplay 0027  
          Lcd_Write_Char@a 0074            Lcd_Write_Char@y 0073                  ___latbits 0002  
            __pcstackBANK0 0020           eeprom_write@addr 007A                   ?_Lcd_Cmd 0070  
                _checktemp 0085           ___lwdiv@dividend 0072           ??_Lcd_Set_Cursor 0075  
           ??_Write_EEPROM 0020                   ?___awdiv 0070                   ?___lwdiv 0070  
                 ?___lwmod 0070                  __pstrings 0800           ___lwdiv@quotient 0075  
           __size_of_reset 0025             __size_of_write 003D             ___wmul@product 0074  
                clear_ram0 095E                _eeprom_read 09A5                 ?_checktemp 0074  
                 Lcd_Cmd@a 0073       __size_of_Read_EEPROM 0039                ??_Lcd_Clear 0074  
                _waterflag 006D             checktemp@tempH 007A             checktemp@tempL 0078  
              __stringbase 0812                  main@i_193 003F                  main@i_197 0041  
        ___wmul@multiplier 0070           ??_Lcd_Write_Char 0071                  main@power 0032  
                main@wrong 0044                   _Lcd_Init 002A                   _Lcd_Port 0971  
             ??_lcddisplay 007A   __end_of_Lcd_Write_String 0BAE           __size_of_Lcd_Cmd 001A  
             pnum$maintext 000A           __size_of___awdiv 0059           __size_of___lwdiv 003C  
       __end_of_lcddisplay 002A           __size_of___lwmod 0032         __end_of__stringtab 0812  
          ___lwdiv@divisor 0070            ___lwdiv@counter 0077                   __ptext10 0B35  
                 __ptext11 0AFC                   __ptext20 0971                   __ptext12 09A5  
                 __ptext13 09C0                   __ptext14 0B71                   __ptext15 0AC5  
                 __ptext16 0BEB                   __ptext17 002A                   __ptext18 0966  
                 __ptext19 098B          __CFG_BOR4V$BOR40V 0000       __end_of_Write_EEPROM 0AC5  
            __size_of_main FA28              __size_of_read 0033                ??_checktemp 0076  
                 _relayoff 006B                   _waterchk 006E                   _pumpfail 0069  
                 _startval 005F     Write_EEPROM@data_value 007C                   main@open 002C  
                 main@pump 0045            main@tempvalhigh 0039         Lcd_Write_Char@temp 0072  
         ___lwmod@dividend 0072                  stringcode 080A         Lcd_Set_Cursor@temp 007A  
               _OPTION_REG 0081            ___lwmod@divisor 0070            ___lwmod@counter 0075  
                 write@Cmd 0072                   write@WRT 0071                   stringtab 0800  
            ?_eeprom_write 0078               ?_eeprom_read 0070  
